(lp0
(lp1
c__builtin__
set
p2
((lp3
VPS_f
p4
aVluc_mrna
p5
aVTakt
p6
aVClk_cyt
p7
aVPS_l
p8
aVTIMmRNA
p9
aVx3
p10
aVVIII_f
p11
aVpEGFR
p12
aVPint
p13
aVErk2
p14
aVCP
p15
aVcyclinE
p16
aVCoenzymeA
p17
aVcNI_m
p18
aVXmRNA
p19
aVTOC1mRNA
p20
aVcyp26_mRNA
p21
aVcIprotein
p22
aVguanosinetriphosphate
p23
aVVai_l
p24
aVII_l
p25
aVhydrogenperoxide
p26
aVTetRprotein
p27
aVErbB1
p28
aVRec_mRNA
p29
aVTM_l
p30
aVEGFR_active
p31
aVP
p32
aVT
p33
aVX
p34
aVAxin2mRNA
p35
aVphosphate__intracellular__
p36
aVSOCS3
p37
aVLHYmRNA
p38
aVPic
p39
aVpSmad3_Smad4_SnoN_n
p40
aVIFNg
p41
aVtoc1luc_mrna
p42
aVXI_f
p43
aVx
p44
aVProtein
p45
aVTF_l
p46
aVTetRmRNA
p47
aVRGS
p48
aVa46_degraded
p49
aVPer_mRNA
p50
aVIfn_mRNA
p51
aVl_Frq
p52
aVWC_1
p53
aVrB
p54
aVcTc
p55
aVcTm
p56
aVpSmad2_Smad4_SnoN_n
p57
aVPi
p58
aVHydrogenperoxide
p59
aVCYP26
p60
aVPC_f
p61
aVcca1luc
p62
aVH2O2
p63
aVcoenzymeA__intracellular__
p64
aVM_C
p65
aVM_B
p66
aVTbet_Prot
p67
aVclockgenemRNA
p68
aVV_f
p69
aVphosphate
p70
aVSOCS3mRNA
p71
aVV_l
p72
aVcL_m
p73
aVM_P
p74
aVpSmad2_SnoN_n
p75
aVpSmad3_Smad4_Ski_n
p76
aVVai_f
p77
aVcLm
p78
aVPhos
p79
aVIFNg_pool
p80
aVcE4_m
p81
aVMc
p82
aVMb
p83
aVRec_Prot
p84
aVM
p85
aVLacIprotein
p86
aVB_C
p87
aVpSmad2_Smad4_c
p88
aVcImRNA
p89
aVMp
p90
aVmRNA
p91
aVMr
p92
aVInorganicphosphate
p93
aVIX_f
p94
aVMF
p95
aVIX_l
p96
aVMK
p97
aVWC_1mRNA
p98
aVcE3
p99
aVPPR7_9mRNA
p100
aVcP7m
p101
aVcompoundII
p102
aVFCp
p103
aV__PUE__enzymeconcernedinATPutilization
p104
aVXa_l
p105
aVcoenzymeA
p106
aVFerricperoxidase
p107
aVLunaticFringeprotein
p108
aVWTasyn
p109
aVtoc1_mrna
p110
aVFC
p111
aVpermRNA
p112
aVclockprotein
p113
aVNotchTM
p114
aVMcm
p115
aVPext
p116
aVcL
p117
aVpSmad2_Smad4_Ski_n
p118
aVcG
p119
aVcY
p120
aVactiveERK
p121
aVAPC_f
p122
aVcLUX
p123
aVTim_mRNA
p124
aVEGF_pEGRF_2
p125
aVVIIIa_f
p126
aVcT
p127
aVB
p128
aVFrqmRNA
p129
aVCLK
p130
aVcP7_m
p131
aVProtein2
p132
aVGTP
p133
aVcP9_m
p134
aVProtein1
p135
aVcG_m
p136
aVV
p137
aVx2
p138
aVII_f
p139
aVpSmad3_Smad4_c
p140
aVx1
p141
aVPer2orCrymRNA
p142
aVTbet_mRNA
p143
aVphosphate__extracellular__
p144
aVXm
p145
aVsubstrateS__hydrogenperoxide__
p146
aVcABAR_m
p147
aVBmal1mRNA
p148
aVPLG
p149
aVLunaticfringemRNA
p150
aVtimmRNA
p151
aVInh
p152
aVSWI5
p153
aVPC_l
p154
aVcca1_mrna
p155
aVRNA
p156
aVOrthophosphate__HPi__pool
p157
aVcNI
p158
aVcca1luc_mrna
p159
aVVIIIai_l
p160
aVhydrogenperoxide__intracellular__
p161
aVClk_mRNA
p162
aVVIIIai_f
p163
aValpha_syn
p164
aVEGFR
p165
aVAxin2protein
p166
aVppERK__nucleus__
p167
aVVII_f
p168
aVCD274mRNA
p169
aVAlpha_synuclein
p170
aVcY_m
p171
aVprotein
p172
aVIFN
p173
aVs_Frq
p174
aVPi_g
p175
aVX_f
p176
aVP_i
p177
aVcP9c
p178
aVStgm
p179
aVCISRNA
p180
aVX_l
p181
aVAT_f
p182
aVcP7c
p183
aVPERmRNA
p184
aVIfn_Prot
p185
aVcP9m
p186
aVcXm
p187
aVA
p188
aVWTasyndegr
p189
aVE
p190
aVcE3_m
p191
aVcE4
p192
aVERK_active
p193
aVT2
p194
aVT3
p195
aVT1
p196
aV__PID__inorganicphosphate
p197
aVcP9
p198
aVbeta
p199
aVU
p200
aVYmRNA
p201
aVpSmad3_SnoN_n
p202
aValpha
p203
aVcLUX_m
p204
aVcP7
p205
aVcT_m
p206
aVERK2
p207
aVRGSc
p208
aVi_cyclinE_CDK2
p209
aVMAPK
p210
aVCoA
p211
aVSOCS3RNA
p212
aVERK
p213
aVLacImRNA
p214
aVy
p215
aVTT
p216
aVcYm
p217
atp218
Rp219
aI175
aa(lp220
g2
((lp221
VATP__intracellular__
p222
aVATP_g
p223
aVATP_C
p224
aVATP_c
p225
aVCytosolicATP
p226
aV__TP2__adenosinetriphosphateinstore2__mitochondria__
p227
aVATPpool
p228
aVATPc
p229
aVATPi
p230
aVATP
p231
aVATP1_2e9
p232
aVatpc
p233
aVATP_mit
p234
aVatpg
p235
atp236
Rp237
aI40
aa(lp238
g2
((lp239
VD_glucose
p240
aVGLCex
p241
aVGLC
p242
aVMixedflowglucose
p243
aV__D___Glucose
p244
aVCytosolicglucose
p245
aVExtracellularGlucose
p246
aVGlucose
p247
aVD_Glucose
p248
aVGlc__ext__
p249
aVintracellularglucose
p250
aVGLUc
p251
aVGlc_e
p252
aV__GLU__glucose
p253
aVD_glucose__extracellular__
p254
aVglucose
p255
atp256
Rp257
aI38
aa(lp258
g2
((lp259
VADPpool
p260
aV__ADP__adenosinediphosphate
p261
aVADP_g
p262
aVADP
p263
aVADP__intracellular__
p264
aVADP_mit
p265
aVadpg
p266
atp267
Rp268
aI35
aa(lp269
g2
((lp270
Vnuc__rb__S788P_S800P_b__
p271
aV__IFN_R_JAK__2m
p272
aVnuc__C2E__T160U_b__
p273
aVgp80
p274
aVIFNgR
p275
aVRb
p276
aVLRC_surf
p277
aVFragments
p278
aVRas_GTP
p279
aVcyto__C2E__T160U_b__
p280
aVReceptorfractionCell2
p281
aVReceptorfractionCell1
p282
aVnuc__rb__S788U_S800U_b__
p283
aVRsh
p284
aVCEBP
p285
aVRas_GDP
p286
aVgp130
p287
aVPFKL
p288
aVRactive
p289
aViDC
p290
aV__IL6_gp80_gp130_JAK__2m
p291
aVpPFKL
p292
aVpRB
p293
aVsR
p294
aVsgp130
p295
aV__IL6_gp80_gp130_JAK__2m_STAT1C
p296
aVR
p297
aVAb_sR_IL6
p298
aVAb
p299
aVsgpFc
p300
aVIL6
p301
aVretinoblastomaprotein__Rb__
p302
aVReceptor
p303
aV__IFN_R_JAK__2m_STAT1C_SHP2
p304
aVIL6_pool
p305
atp306
Rp307
aI32
aa(lp308
g2
((lp309
V__DIN__intramitochondrialdiphospyridinenucleotide
p310
aVNAD
p311
aVnad
p312
aVNicotinamideadeninedinucleotide
p313
aVNAD__pl____intracellular__
p314
aV__DPN__extramitochondrialdiphospyridinenucleotide
p315
aVNAD_g
p316
aVNADpl
p317
aVNAD__pl__
p318
atp319
Rp320
aI31
aa(lp321
g2
((lp322
Vpyruvate__intracellular__
p323
aVPYRout
p324
aVPyr_c
p325
aVPyruvate
p326
aVpyruvate
p327
aVPYR
p328
aV__PYR__pyruvate
p329
atp330
Rp331
aI30
aa(lp332
g2
((lp333
VCO2
p334
aVcarbondioxide
p335
aVcarbondioxide__intracellular__
p336
aVCO2_c
p337
aVCO2_g
p338
atp339
Rp340
aI28
aa(lp341
g2
((lp342
VMek1
p343
aVMek
p344
aVMEK1_minus_2
p345
aVMAPKK
p346
aVMKK
p347
aVMek_active
p348
aVMEK
p349
atp350
Rp351
aI28
aa(lp352
g2
((lp353
VHsp90_p_eNOS_CaM_Ca4
p354
aVCalciuminER
p355
aVPP2Binactive
p356
aVCalmodulin
p357
aVCa_ER
p358
aVcamR
p359
aVca
p360
aVHsp90
p361
aVcytosolicfreecaconcentration
p362
aVCaintheInsP3_insensitivepool
p363
aVCalcium
p364
aVCytosolicCalcium
p365
aVCa_super_2_plus__endsuper_trunsp
p366
aVcalciumconcentration
p367
aVERcaconcentration
p368
aVERcalciumconcentration
p369
aVcytosoliccalciumconcentration
p370
aVCa_super_2_plus__endsuper_
p371
aVPP2B
p372
aVExtracellularCalcium
p373
aVCaI
p374
aVCaM
p375
aVCa_super_2_plus__endsuper_pump
p376
aVCa2_free
p377
aVPP2BinactiveCa2
p378
aVp_Shc_Grb2_Sos
p379
atp380
Rp381
aI25
aa(lp382
g2
((lp383
VNADP_c
p384
aVNADP_super_pl
p385
aVNADP_g
p386
aVNADP__pl____intracellular__
p387
aVNADP
p388
aVNADPpl
p389
aVNADP__pl__
p390
atp391
Rp392
aI25
aa(lp393
g2
((lp394
VRaf
p395
aVRAF
p396
aVMKKK
p397
aVMos
p398
aVRaf1active
p399
aVRaf_active
p400
aVRaf_minus_1
p401
aVRaf1
p402
aVRafPP
p403
atp404
Rp405
aI23
aa(lp406
g2
((lp407
VAMP__intracellular__
p408
aVAMP_g
p409
aVAMP_c
p410
aVAMP
p411
aVampc
p412
aVampg
p413
aVadeninemonophosphate
p414
atp415
Rp416
aI23
aa(lp417
g2
((lp418
Vglycerol_3_phosphate
p419
aVG3P
p420
aV__GAP__glyceraldehyde3_phosphate
p421
aVglyceraldehyde3_phosphate
p422
aVGlycerol3_phosphate
p423
aVglycerol3phosphate
p424
aVGAP
p425
aVglycerol3_phosphate
p426
aVGlyceraldehyde3_phosphate
p427
aVRasGAP
p428
aVsn_glycerol3_phosphate__intracellular__
p429
atp430
Rp431
aI22
aa(lp432
g2
((lp433
V__OXY__oxygen
p434
aVoxygen
p435
aVOxygen
p436
aVoxygen__extracellular__
p437
aVO2
p438
atp439
Rp440
aI20
aa(lp441
g2
((lp442
Vglycerol__intracellular__
p443
aVGlycerol
p444
aVGlyin
p445
aVExtracellularglycerol
p446
aVGly_g
p447
aVGly_e
p448
aVglycerol
p449
atp450
Rp451
aI19
aa(lp452
g2
((lp453
VNADH
p454
aV__DPH__extramitochondrialreduceddiphospyridinenucleotide
p455
aVNADH__intracellular__
p456
aV__DIH__intramitochondrialreduceddiphospyridinenucleotide
p457
aVRed_Equ___NADH__
p458
aVNADH_g
p459
atp460
Rp461
aI18
aa(lp462
g2
((lp463
VGDP
p464
aVGDP_C
p465
aVD
p466
aVD75
p467
aVD34
p468
aVguanosinediphosphate
p469
aVGDP__intracellular__
p470
aVD137
p471
atp472
Rp473
aI18
aa(lp474
g2
((lp475
VE4P
p476
aVD_erythrose4_phosphate
p477
aVErythrose_4_phosphate
p478
aVerythrose4_phosphate
p479
aVD_erythrose4_phosphate__2_____intracellular__
p480
aVD_Erythrose4_phosphate
p481
aVErythrose4_phosphate
p482
atp483
Rp484
aI18
aa(lp485
g2
((lp486
Vsedoheptulose7_phosphate
p487
aVsedoheptulose_7_phosphate
p488
aVSedoheptulose7_phosphate
p489
aVS7P
p490
aVsedoheptulose7_phosphate__intracellular__
p491
atp492
Rp493
aI18
aa(lp494
g2
((lp495
VPKB
p496
aVAkt
p497
aVAKT
p498
atp499
Rp500
aI18
aa(lp501
g2
((lp502
VD_glucose6_phosphate
p503
aVD_Glucose6_phosphate
p504
aValdehydo_D_glucose6_phosphate__intracellular__
p505
aVGlucose_6_Phosphate
p506
aVGlu6P
p507
aVglucose6_phosphate
p508
aVG6Ppool
p509
aVGlucose6_phosphate
p510
aVG6P
p511
aV__GLP__glucose6_phosphate
p512
atp513
Rp514
aI18
aa(lp515
g2
((lp516
Vglyceronephosphate
p517
aVDHAP
p518
aVdihydrohxyacetone_phosphate
p519
aV__DHA__dihydroxacetonephosphate
p520
aVdihydroxyacetonephosphate
p521
aVDihydroxyacetonephosphate
p522
aVglyceronephosphate__intracellular__
p523
atp524
Rp525
aI15
aa(lp526
g2
((lp527
VPase
p528
aVDUSPn
p529
aVDusp6mRNA
p530
aVMKP3
p531
aVDUSPc
p532
aVPase2
p533
aVduspn
p534
aVMAPK_Pase
p535
aVPase4
p536
aVMAPKphosphatase
p537
aVMKP
p538
aVDusp6protein
p539
aVPase3
p540
aVPase1
p541
aVDUSP
p542
aVERKpase
p543
atp544
Rp545
aI15
aa(lp546
g2
((lp547
VRibose_5_phosphate
p548
aVRibose5_phosphate
p549
aVR5P
p550
aVribose_5_phosphate
p551
aValpha_D_Ribose5_phosphate
p552
aVribose5_phosphate
p553
atp554
Rp555
aI14
aa(lp556
g2
((lp557
VincAMP
p558
aVComplex_br___Costal2_Smoothened__br_Fused__
p559
aVComplex_br___Mastermind_Su__H____br_CoA_NI_sub_c_sub_s__
p560
aVPER_TIMcomplexnuclear
p561
aVMad1_C_Mad2
p562
aVIn_cAMP
p563
aVcAMP
p564
aVN_sub_tm
p565
aVComplex__Grb2____PLC__
p566
aVNI_sub_c_sub_s
p567
aVR2C2
p568
aVComplex_br___Cubitus_space_interruptus_space_repressor_Su__fu____
p569
aVEx_cAMP
p570
aVComplex_br___Costal2_Fused__br_Smoothened__
p571
aVcAMP4_R2
p572
aVcomplex
p573
aVComplex_br___Serrate_N_sub_ext__
p574
aVComplex_br___Delta_N_sub_ext__
p575
aVexcAMP
p576
aVFRAT_CK2
p577
atp578
Rp579
aI13
aa(lp580
g2
((lp581
VPC
p582
aVActiveSKP2orAPC
p583
aVCyclinProtease
p584
aVAPC
p585
aVIE
p586
aVphosphorylatedintermediaryenzyme
p587
atp588
Rp589
aI13
aa(lp590
g2
((lp591
VPG3
p592
aVPGA
p593
atp594
Rp595
aI12
aa(lp596
g2
((lp597
VUDP
p598
aVUDPc
p599
aVUDP__intracellular__
p600
atp601
Rp602
aI12
aa(lp603
g2
((lp604
VEpidermal_Growth_Factor
p605
aVInhibitor
p606
aVEGF
p607
atp608
Rp609
aI12
aa(lp610
g2
((lp611
VUTP
p612
aVUTPc
p613
aVUTP__intracellular__
p614
atp615
Rp616
aI12
aa(lp617
g2
((lp618
VA_SOS
p619
aVSos
p620
aVSOS
p621
aVD_SOS
p622
atp623
Rp624
aI12
aa(lp625
g2
((lp626
VCysteine
p627
aVb_Cysteine
p628
aVL_cysteine
p629
aVL_cysteine__intracellular__
p630
aVL_Cysteine
p631
atp632
Rp633
aI11
aa(lp634
g2
((lp635
Vacetate__intracellular__
p636
aVacetate
p637
aVACE
p638
aVACT
p639
aVAcetate
p640
atp641
Rp642
aI11
aa(lp643
g2
((lp644
Vethanol
p645
aVExtracellularethanol
p646
aVEtOH
p647
aVEthanol
p648
aVethanol__intracellular__
p649
atp650
Rp651
aI11
aa(lp652
g2
((lp653
VII
p654
aVthrombin
p655
aVthrombin_ligand
p656
atp657
Rp658
aI10
aa(lp659
g2
((lp660
VCasp3Substrate
p661
aVCaspase3
p662
aVC3
p663
aVSIC1
p664
aVProCasp3
p665
aVSic1
p666
aVCKIt
p667
aVCasp3
p668
atp669
Rp670
aI10
aa(lp671
g2
((lp672
VNADPH
p673
aVNADPH__intracellular__
p674
atp675
Rp676
aI10
aa(lp677
g2
((lp678
Voxaloacetate__2_____intracellular__
p679
aVOAA
p680
aVoxaloacetate
p681
aVOxaloacetate
p682
atp683
Rp684
aI10
aa(lp685
g2
((lp686
VGrb2
p687
atp688
Rp689
aI10
aa(lp690
g2
((lp691
VFormate
p692
aVformate
p693
aVformate__intracellular__
p694
aVm_Formate
p695
aVc_formate
p696
aVc_Formate
p697
atp698
Rp699
aI10
aa(lp700
g2
((lp701
Vm_Glycine
p702
aVGLYc
p703
aVb_Glycine
p704
aVGlycine
p705
aVglycine__intracellular__
p706
aVL_glycine
p707
atp708
Rp709
aI10
aa(lp710
g2
((lp711
VCdc20a
p712
aVinactiveCdc20
p713
aVCDC20
p714
aVCdc20t
p715
aVCdc20
p716
atp717
Rp718
aI9
aa(lp719
g2
((lp720
Vacetaldehyde__intracellular__
p721
aVAcetaldehyde
p722
aVExtracellularacetaldehyde
p723
aVacetaldehyde
p724
atp725
Rp726
aI9
aa(lp727
g2
((lp728
VShc
p729
atp730
Rp731
aI9
aa(lp732
g2
((lp733
Vsuccinate__2_____extracellular__
p734
aVsuccinate
p735
aVsuccinate__2_____intracellular__
p736
aVSuccinate
p737
atp738
Rp739
aI9
aa(lp740
g2
((lp741
VSHP
p742
aVShp2
p743
aVSHP2
p744
atp745
Rp746
aI9
aa(lp747
g2
((lp748
VGLU
p749
aVL_Glutamate
p750
aVL_glutamate
p751
aVglutamate
p752
aVL_glutamate__intracellular__
p753
atp754
Rp755
aI9
aa(lp756
g2
((lp757
VdUMP__intracellular__
p758
aVdUMP
p759
atp760
Rp761
aI9
aa(lp762
g2
((lp763
VQ
p764
aVwater
p765
aVH2O
p766
aVwater__intracellular__
p767
atp768
Rp769
aI8
aa(lp770
g2
((lp771
VTFPI
p772
atp773
Rp774
aI8
aa(lp775
g2
((lp776
VFreecyclin
p777
aVTotalcdc13
p778
aVCyclin
p779
aVp_cyclin
p780
aVcyclin
p781
atp782
Rp783
aI8
aa(lp784
g2
((lp785
VIP3
p786
aVCytosolicIP3
p787
atp788
Rp789
aI8
aa(lp790
g2
((lp791
VL_serine__intracellular__
p792
aVL_serine
p793
aVserine
p794
aVL_Serine
p795
atp796
Rp797
aI8
aa(lp798
g2
((lp799
VL_citrulline
p800
aVL_citrulline__intracellular__
p801
aVcitruline
p802
aVL_Citrulline
p803
atp804
Rp805
aI8
aa(lp806
g2
((lp807
VL_homoserine
p808
aVHomoserine
p809
aVL_Homoserine
p810
aVL_homoserine__intracellular__
p811
atp812
Rp813
aI8
aa(lp814
g2
((lp815
VAcetyl_CoA
p816
aVAcCoA
p817
aVacetyl_CoA__intracellular__
p818
aVacetyl_CoA
p819
aVAcetCoA
p820
aVacetylCoA
p821
atp822
Rp823
aI8
aa(lp824
g2
((lp825
Vtrehalose
p826
aVTrehalose
p827
aValpha_alpha_trehalose__intracellular__
p828
atp829
Rp830
aI8
aa(lp831
g2
((lp832
VL_methionine__intracellular__
p833
aVL_methionine
p834
aVMethionine
p835
aVL_Methionine
p836
atp837
Rp838
aI8
aa(lp839
g2
((lp840
VGLY
p841
aVglycogen
p842
aVglycogen__intracellular__
p843
atp844
Rp845
aI8
aa(lp846
g2
((lp847
Vhydrogensulfide__intracellular__
p848
aVHydrogensulfide
p849
aVH2S
p850
aVhydrogensulfide
p851
atp852
Rp853
aI8
aa(lp854
g2
((lp855
Vsulphate
p856
aVSulfate
p857
aVSO4
p858
aVsulphate__extracellular__
p859
atp860
Rp861
aI8
aa(lp862
g2
((lp863
Vphosphoenolpyruvate__intracellular__
p864
aVPEP
p865
aVphosphoenolpyruvate
p866
aVPhosphoenolpyruvate
p867
atp868
Rp869
aI8
aa(lp870
g2
((lp871
VCitrate
p872
aVcitrate
p873
atp874
Rp875
aI8
aa(lp876
g2
((lp877
Vp105
p878
aVNFkB
p879
aVp50
p880
atp881
Rp882
aI8
aa(lp883
g2
((lp884
VS_Adenosyl_L_methionine
p885
aVs_adenosyl_L_methionine
p886
aVS_adenosyl_L_methionine
p887
aVS_adenosyl_L_methionine__intracellular__
p888
atp889
Rp890
aI8
aa(lp891
g2
((lp892
Vb_GSH
p893
aVGSH
p894
aVglutathione
p895
aVReducedGlutathione
p896
atp897
Rp898
aI8
aa(lp899
g2
((lp900
VUMP__intracellular__
p901
aVUMP
p902
atp903
Rp904
aI8
aa(lp905
g2
((lp906
VNH4
p907
aVammonium
p908
aVammonium__extracellular__
p909
aVAmmonium
p910
atp911
Rp912
aI8
aa(lp913
g2
((lp914
Vfumarate__2_____intracellular__
p915
aVfumarate
p916
aVFumarate
p917
atp918
Rp919
aI8
aa(lp920
g2
((lp921
Vslanine
p922
aVL_alanine
p923
aVL_Alanine
p924
aVL_alanine__intracellular__
p925
atp926
Rp927
aI8
aa(lp928
g2
((lp929
Vornithine__intracellular__
p930
aVOrnithine
p931
aVornithine
p932
atp933
Rp934
aI8
aa(lp935
g2
((lp936
VL_tyrosine
p937
aVL_Tyrosine
p938
aVL_tyrosine__intracellular__
p939
aVL_Tyr
p940
atp941
Rp942
aI8
aa(lp943
g2
((lp944
VN0
p945
aVN1
p946
aVN2
p947
aVCa_B
p948
aVcell_mass
p949
atp950
Rp951
aI7
aa(lp952
g2
((lp953
Vnuc__e2f__b__
p954
aVtheta
p955
aVE2F
p956
aVE2F1
p957
atp958
Rp959
aI7
aa(lp960
g2
((lp961
Vp18
p962
aVC8
p963
aVC8m
p964
aVCasp8
p965
aVproC8
p966
atp967
Rp968
aI7
aa(lp969
g2
((lp970
VFL
p971
aVFS
p972
aVp43
p973
aVFLIP
p974
aVflip
p975
atp976
Rp977
aI7
aa(lp978
g2
((lp979
VAspartate
p980
aVL_aspartate__intracellular__
p981
aVL_aspartate
p982
aVaspartate
p983
atp984
Rp985
aI7
aa(lp986
g2
((lp987
VPI3Kinase
p988
aVPI3K
p989
atp990
Rp991
aI7
aa(lp992
g2
((lp993
VPIP2_M
p994
aVPI4_5P2
p995
aVPIP2
p996
atp997
Rp998
aI7
aa(lp999
g2
((lp1000
VLactate
p1001
aVlactate
p1002
aV__S___lactate
p1003
aV__R___lactate
p1004
aV__LAC__lactate
p1005
aVLAC
p1006
atp1007
Rp1008
aI7
aa(lp1009
g2
((lp1010
VPDK1
p1011
atp1012
Rp1013
aI7
aa(lp1014
g2
((lp1015
Vdihydrofolicacid
p1016
aVc_DHF
p1017
aVdihydrofolicacid__intracellular__
p1018
atp1019
Rp1020
aI7
aa(lp1021
g2
((lp1022
VSTAT3Nm_2
p1023
aVSTAT3Cm_2
p1024
aVSTAT3
p1025
atp1026
Rp1027
aI7
aa(lp1028
g2
((lp1029
VL_leucine__intracellular__
p1030
aVL_leucine
p1031
aVL_Leucine
p1032
atp1033
Rp1034
aI7
aa(lp1035
g2
((lp1036
VN_carbamoyl_L_aspartate__intracellular__
p1037
aVN_carbamoyl_L_aspartate
p1038
aVN_Carbamoyl_L_aspartate
p1039
atp1040
Rp1041
aI7
aa(lp1042
g2
((lp1043
VL_valine
p1044
aVL_Valine
p1045
aVL_valine__intracellular__
p1046
atp1047
Rp1048
aI7
aa(lp1049
g2
((lp1050
VL_phenylalanine
p1051
aVL_Phenylalanine
p1052
aVL_phenylalanine__intracellular__
p1053
atp1054
Rp1055
aI7
aa(lp1056
g2
((lp1057
VL_asparagine__intracellular__
p1058
aVL_asparagine
p1059
aVL_Asparagine
p1060
atp1061
Rp1062
aI7
aa(lp1063
g2
((lp1064
Vshikimate
p1065
aVShikimate
p1066
aVshikimate__intracellular__
p1067
atp1068
Rp1069
aI7
aa(lp1070
g2
((lp1071
VL_homocysteine__intracellular__
p1072
aVL_homocysteine
p1073
aVL_Homocysteine
p1074
atp1075
Rp1076
aI7
aa(lp1077
g2
((lp1078
VL_glutamine
p1079
aVL_Glutamine
p1080
aVL_glutamine__intracellular__
p1081
atp1082
Rp1083
aI7
aa(lp1084
g2
((lp1085
V__S___2_acetyl_2_hydroxybutanoate
p1086
aV__S___2_Aceto_2_hydroxybutanoate
p1087
aV__S___2_acetyl_2_hydroxybutanoate__intracellular__
p1088
atp1089
Rp1090
aI7
aa(lp1091
g2
((lp1092
VdTMP
p1093
aVdTMP__intracellular__
p1094
atp1095
Rp1096
aI7
aa(lp1097
g2
((lp1098
VL_isoleucine
p1099
aVL_Isoleucine
p1100
aVL_isoleucine__intracellular__
p1101
atp1102
Rp1103
aI7
aa(lp1104
g2
((lp1105
VCTP
p1106
aVCTP__intracellular__
p1107
atp1108
Rp1109
aI7
aa(lp1110
g2
((lp1111
VDodecanoate__n_C12_0__
p1112
aVlaurate__intracellular__
p1113
aVlaurate
p1114
atp1115
Rp1116
aI7
aa(lp1117
g2
((lp1118
Vanthranilate__intracellular__
p1119
aVanthranilate
p1120
aVAnthranilate
p1121
atp1122
Rp1123
aI7
aa(lp1124
g2
((lp1125
VL_proline
p1126
aVL_Proline
p1127
aVL_proline__intracellular__
p1128
atp1129
Rp1130
aI7
aa(lp1131
g2
((lp1132
VN_Acetyl_L_glutamate
p1133
aVN_acetyl_L_glutamate__2_____intracellular__
p1134
aVN_acetyl_L_glutamate
p1135
atp1136
Rp1137
aI7
aa(lp1138
g2
((lp1139
VL_tryptophan
p1140
aVL_tryptophan__intracellular__
p1141
aVL_Tryptophan
p1142
atp1143
Rp1144
aI7
aa(lp1145
g2
((lp1146
Vadenosine__intracellular__
p1147
aVadenosine
p1148
aVAdenosine
p1149
atp1150
Rp1151
aI7
aa(lp1152
g2
((lp1153
Vorotate__intracellular__
p1154
aVorotate
p1155
aVOrotate
p1156
atp1157
Rp1158
aI7
aa(lp1159
g2
((lp1160
Vphosphatidylethanolamine__dihexadec_9enoyl_n_C16_1__
p1161
aVphosphatidylethanolamine
p1162
aVphosphatidylethanolamine__dihexadecanoyl_n_C16_0__
p1163
aVphosphatidylethanolamine__intracellular__
p1164
atp1165
Rp1166
aI7
aa(lp1167
g2
((lp1168
VN___5_phospho_beta_D_ribosyl__anthranilate
p1169
aVN___5_Phospho_D_ribosyl__anthranilate
p1170
aVN___5_phospho_beta_D_ribosyl__anthranilate__intracellular__
p1171
atp1172
Rp1173
aI7
aa(lp1174
g2
((lp1175
VPhenylpyruvate
p1176
aVketo_phenylpyruvate__intracellular__
p1177
aVketo_phenylpyruvate
p1178
atp1179
Rp1180
aI7
aa(lp1181
g2
((lp1182
VL_histidine__intracellular__
p1183
aVL_histidine
p1184
aVL_Histidine
p1185
atp1186
Rp1187
aI7
aa(lp1188
g2
((lp1189
Vriboflavin
p1190
aVRiboflavin
p1191
aVriboflavin__intracellular__
p1192
atp1193
Rp1194
aI7
aa(lp1195
g2
((lp1196
VMdm2
p1197
atp1198
Rp1199
aI6
aa(lp1200
g2
((lp1201
Vp53
p1202
atp1203
Rp1204
aI6
aa(lp1205
g2
((lp1206
VLigand
p1207
aVL
p1208
atp1209
Rp1210
aI6
aa(lp1211
g2
((lp1212
VRuBP
p1213
atp1214
Rp1215
aI6
aa(lp1216
g2
((lp1217
VIRS
p1218
aVIRS1
p1219
atp1220
Rp1221
aI6
aa(lp1222
g2
((lp1223
VPDE
p1224
aVREGA
p1225
atp1226
Rp1227
aI6
aa(lp1228
g2
((lp1229
VIX
p1230
atp1231
Rp1232
aI6
aa(lp1233
g2
((lp1234
VVIIIa2
p1235
aVVIIIa1_L
p1236
aVVIII
p1237
atp1238
Rp1239
aI6
aa(lp1240
g2
((lp1241
VTF
p1242
aVTF_VIIa
p1243
atp1244
Rp1245
aI6
aa(lp1246
g2
((lp1247
VAspartatebeta_semialdehyde
p1248
aVL_aspartate4_semialdehyde
p1249
aVL_Aspartate4_semialdehyde
p1250
atp1251
Rp1252
aI6
aa(lp1253
g2
((lp1254
VHpl__extracellular__
p1255
aVHo
p1256
aVHpl__intracellular__
p1257
aVHpl
p1258
atp1259
Rp1260
aI6
aa(lp1261
g2
((lp1262
VIKBA
p1263
aVIkBa
p1264
aVIkB_alpha_s123
p1265
aVIkB_alpha
p1266
atp1267
Rp1268
aI6
aa(lp1269
g2
((lp1270
Vxanthosine_5_phosphate
p1271
aVXanthosine5_phosphate
p1272
aVxanthosinemonophosphate
p1273
atp1274
Rp1275
aI6
aa(lp1276
g2
((lp1277
VJAK__IL_6__
p1278
aVJAK
p1279
aVJAK1
p1280
atp1281
Rp1282
aI6
aa(lp1283
g2
((lp1284
Vdiglyceride
p1285
aVDAG
p1286
aVdiglyceride__intracellular__
p1287
atp1288
Rp1289
aI6
aa(lp1290
g2
((lp1291
VPTEN
p1292
aVPP1
p1293
aVPhosp1
p1294
atp1295
Rp1296
aI6
aa(lp1297
g2
((lp1298
VCystathionine
p1299
aVL_Cystathionine
p1300
aVL_cystathionine__intracellular__
p1301
atp1302
Rp1303
aI5
aa(lp1304
g2
((lp1305
VGFP
p1306
aVmGFP
p1307
atp1308
Rp1309
aI5
aa(lp1310
g2
((lp1311
VBid
p1312
atp1313
Rp1314
aI5
aa(lp1315
g2
((lp1316
VFADD
p1317
atp1318
Rp1319
aI5
aa(lp1320
g2
((lp1321
VWee1n
p1322
aVWee1
p1323
aVWee1c
p1324
aVphosphorylatedwee1
p1325
atp1326
Rp1327
aI5
aa(lp1328
g2
((lp1329
VS6
p1330
atp1331
Rp1332
aI5
aa(lp1333
g2
((lp1334
VP0cyt
p1335
aVPer_cyt
p1336
aVPER
p1337
aVPERProtein__unphosphorylated__
p1338
atp1339
Rp1340
aI5
aa(lp1341
g2
((lp1342
VCdh1
p1343
aVCDH1
p1344
atp1345
Rp1346
aI5
aa(lp1347
g2
((lp1348
VPPase
p1349
aVPP2A
p1350
aVPP2ACa
p1351
atp1352
Rp1353
aI5
aa(lp1354
g2
((lp1355
VVII
p1356
atp1357
Rp1358
aI5
aa(lp1359
g2
((lp1360
VPGN
p1361
aVD_6_phosphoglucono_delta_lactone
p1362
aVPhospho_D_glucono_1_5_lactone
p1363
aVG6L
p1364
atp1365
Rp1366
aI5
aa(lp1367
g2
((lp1368
Vfructose_6_phosphate
p1369
aVF6P_proxy
p1370
aVF6P
p1371
atp1372
Rp1373
aI5
aa(lp1374
g2
((lp1375
VCRP
p1376
atp1377
Rp1378
aI5
aa(lp1379
g2
((lp1380
Vlipid__intracellular__
p1381
aVLIPID
p1382
atp1383
Rp1384
aI5
aa(lp1385
g2
((lp1386
VSOCS1
p1387
atp1388
Rp1389
aI5
aa(lp1390
g2
((lp1391
VTS2_c
p1392
atp1393
Rp1394
aI5
aa(lp1395
g2
((lp1396
V_6PG_g
p1397
aV_6PG_c
p1398
atp1399
Rp1400
aI5
aa(lp1401
g2
((lp1402
VRul5P_c
p1403
aVRul5P_g
p1404
atp1405
Rp1406
aI5
aa(lp1407
g2
((lp1408
VGSSG
p1409
aVc_GSSG
p1410
aVglutathionedisulfide
p1411
atp1412
Rp1413
aI5
aa(lp1414
g2
((lp1415
VAICAR
p1416
atp1417
Rp1418
aI5
aa(lp1419
g2
((lp1420
VTHF
p1421
aVm_THF
p1422
atp1423
Rp1424
aI5
aa(lp1425
g2
((lp1426
VPRPP
p1427
atp1428
Rp1429
aI5
aa(lp1430
g2
((lp1431
V__R___mevalonate__intracellular__
p1432
aV__R___mevalonate
p1433
atp1434
Rp1435
aI5
aa(lp1436
g2
((lp1437
Vdecanoyl_CoA
p1438
aVDecanoyl_CoA__n_C10_0CoA__
p1439
atp1440
Rp1441
aI5
aa(lp1442
g2
((lp1443
Vdecanoate
p1444
aVdecanoate__intracellular__
p1445
atp1446
Rp1447
aI5
aa(lp1448
g2
((lp1449
Vmyristate__intracellular__
p1450
aVmyristate
p1451
atp1452
Rp1453
aI5
aa(lp1454
g2
((lp1455
VD_erythro_1___imidazol_4_yl__glycerol3_phosphate
p1456
aVD_erythro_1___Imidazol_4_yl__glycerol3_phosphate
p1457
atp1458
Rp1459
aI5
aa(lp1460
g2
((lp1461
VOctanoyl_CoA__n_C8_0CoA__
p1462
aVoctanoyl_CoA
p1463
atp1464
Rp1465
aI5
aa(lp1466
g2
((lp1467
V__1__3___beta_D_glucan__intracellular__
p1468
aV__1__3___beta_D_glucan
p1469
atp1470
Rp1471
aI5
aa(lp1472
g2
((lp1473
VL_arginine
p1474
aVL_Arginine
p1475
atp1476
Rp1477
aI5
aa(lp1478
g2
((lp1479
Vacetoacetyl_CoA
p1480
aVAcetoacetyl_CoA
p1481
atp1482
Rp1483
aI5
aa(lp1484
g2
((lp1485
Vmannan__intracellular__
p1486
aVmannan
p1487
atp1488
Rp1489
aI5
aa(lp1490
g2
((lp1491
Vergosta_5_7_22_24__28___tetraen_3beta_ol__intracellular__
p1492
aVergosta_5_7_22_24__28___tetraen_3beta_ol
p1493
atp1494
Rp1495
aI5
aa(lp1496
g2
((lp1497
VCMP
p1498
atp1499
Rp1500
aI5
aa(lp1501
g2
((lp1502
V__S___2_3_epoxysqualene__intracellular__
p1503
aV__S___2_3_epoxysqualene
p1504
atp1505
Rp1506
aI5
aa(lp1507
g2
((lp1508
V__R___2_3_dihydroxy_3_methylbutanoate
p1509
aV__R___2_3_Dihydroxy_3_methylbutanoate
p1510
atp1511
Rp1512
aI5
aa(lp1513
g2
((lp1514
VN_Acetyl_L_glutamyl5_phosphate
p1515
aVN_acetyl_L_gamma_glutamylphosphate
p1516
atp1517
Rp1518
aI5
aa(lp1519
g2
((lp1520
Vzymosterol
p1521
aVzymosterol__intracellular__
p1522
atp1523
Rp1524
aI5
aa(lp1525
g2
((lp1526
Vphosphatidyl_N_methylethanolamine__intracellular__
p1527
aVphosphatidyl_N_methylethanolamine
p1528
atp1529
Rp1530
aI5
aa(lp1531
g2
((lp1532
Vcarbamoylphosphate
p1533
aVCarbamoylphosphate
p1534
atp1535
Rp1536
aI5
aa(lp1537
g2
((lp1538
VCDP_1_2_dihexadec_9_enoylglycerol
p1539
aVCDP_1_2_dihexadecanoylglycerol
p1540
aVCDP_diacylglycerol
p1541
atp1542
Rp1543
aI5
aa(lp1544
g2
((lp1545
Vphosphatidylcholine
p1546
aVphosphatidylcholine__intracellular__
p1547
atp1548
Rp1549
aI5
aa(lp1550
g2
((lp1551
VL_lysine
p1552
aVL_Lysine
p1553
atp1554
Rp1555
aI5
aa(lp1556
g2
((lp1557
Vdolichylphosphate__intracellular__
p1558
aVdolichylphosphate
p1559
atp1560
Rp1561
aI5
aa(lp1562
g2
((lp1563
Vphosphatidyl_N_N_dimethylethanolamine__intracellular__
p1564
aVphosphatidyl_N_N_dimethylethanolamine
p1565
atp1566
Rp1567
aI5
aa(lp1568
g2
((lp1569
VD_xylulose5_phosphate
p1570
aVD_Xylulose5_phosphate
p1571
atp1572
Rp1573
aI5
aa(lp1574
g2
((lp1575
Vsqualene__intracellular__
p1576
aVsqualene
p1577
atp1578
Rp1579
aI5
aa(lp1580
g2
((lp1581
Vstearate__intracellular__
p1582
aVstearate
p1583
atp1584
Rp1585
aI5
aa(lp1586
g2
((lp1587
Vchorismate
p1588
aVchorismate__2_____intracellular__
p1589
atp1590
Rp1591
aI5
aa(lp1592
g2
((lp1593
Vlignocerate__intracellular__
p1594
aVlignocericacid
p1595
atp1596
Rp1597
aI5
aa(lp1598
g2
((lp1599
VGMP
p1600
atp1601
Rp1602
aI5
aa(lp1603
g2
((lp1604
VdATP
p1605
atp1606
Rp1607
aI5
aa(lp1608
g2
((lp1609
VGlu_tRNA__Glu__
p1610
aVL_Glutamyl_tRNA__Glu__
p1611
atp1612
Rp1613
aI5
aa(lp1614
g2
((lp1615
Vubiquinol_6
p1616
aVUbiquinol_8
p1617
atp1618
Rp1619
aI5
aa(lp1620
g2
((lp1621
Vpalmitate
p1622
aVHexadecanoate__n_C16_0__
p1623
atp1624
Rp1625
aI5
aa(lp1626
g2
((lp1627
VL_allysine
p1628
aVL_allysine__intracellular__
p1629
atp1630
Rp1631
aI5
aa(lp1632
g2
((lp1633
Vmalonyl_CoA
p1634
aVMalonyl_CoA
p1635
atp1636
Rp1637
aI5
aa(lp1638
g2
((lp1639
VtRNA__Glu__
p1640
atp1641
Rp1642
aI5
aa(lp1643
g2
((lp1644
V__2R_3R___2_3_dihydroxy_3_methylpentanoate
p1645
aV__R___2_3_Dihydroxy_3_methylpentanoate
p1646
atp1647
Rp1648
aI5
aa(lp1649
g2
((lp1650
Vergosterol
p1651
aVergosterol__intracellular__
p1652
atp1653
Rp1654
aI5
aa(lp1655
g2
((lp1656
VTetradecanoyl_CoA__n_C14_0CoA__
p1657
aVmyristoyl_CoA
p1658
atp1659
Rp1660
aI5
aa(lp1661
g2
((lp1662
Vmyo_inositol__intracellular__
p1663
aVmyo_inositol
p1664
atp1665
Rp1666
aI5
aa(lp1667
g2
((lp1668
Vzymosterolintermediate1b__intracellular__
p1669
aVzymosterolintermediate1b
p1670
atp1671
Rp1672
aI5
aa(lp1673
g2
((lp1674
Vzymosterolintermediate1c__intracellular__
p1675
aVzymosterolintermediate1c
p1676
atp1677
Rp1678
aI5
aa(lp1679
g2
((lp1680
Vzymosterolintermediate1a__intracellular__
p1681
aVzymosterolintermediate1a
p1682
atp1683
Rp1684
aI5
aa(lp1685
g2
((lp1686
VL_histidinol
p1687
aVL_Histidinol
p1688
atp1689
Rp1690
aI5
aa(lp1691
g2
((lp1692
Vzymosterolintermediate2__intracellular__
p1693
aVzymosterolintermediate2
p1694
atp1695
Rp1696
aI5
aa(lp1697
g2
((lp1698
VN__2___acetyl_L_ornithine
p1699
aVN__2___acetyl_L_ornithine__intracellular__
p1700
atp1701
Rp1702
aI5
aa(lp1703
g2
((lp1704
VO_Mad2
p1705
atp1706
Rp1707
aI4
aa(lp1708
g2
((lp1709
VGbg
p1710
aVFreelevelsofG_beta_gamma
p1711
aVGsbg
p1712
atp1713
Rp1714
aI4
aa(lp1715
g2
((lp1716
VIons
p1717
aVNapl
p1718
aVCytosolicSodium
p1719
atp1720
Rp1721
aI4
aa(lp1722
g2
((lp1723
VThreonine
p1724
aVL_threonine
p1725
atp1726
Rp1727
aI4
aa(lp1728
g2
((lp1729
VPKA
p1730
atp1731
Rp1732
aI4
aa(lp1733
g2
((lp1734
VROS
p1735
aVRec_active
p1736
atp1737
Rp1738
aI4
aa(lp1739
g2
((lp1740
VTP
p1741
atp1742
Rp1743
aI4
aa(lp1744
g2
((lp1745
VmCherry
p1746
atp1747
Rp1748
aI4
aa(lp1749
g2
((lp1750
VPrER_mGFP
p1751
aVPrNES_mCherry
p1752
atp1753
Rp1754
aI4
aa(lp1755
g2
((lp1756
Vp30
p1757
aVp55free
p1758
atp1759
Rp1760
aI4
aa(lp1761
g2
((lp1762
VSTAT5
p1763
atp1764
Rp1765
aI4
aa(lp1766
g2
((lp1767
VJAK__IFN__
p1768
aVJAK2
p1769
atp1770
Rp1771
aI4
aa(lp1772
g2
((lp1773
VTim_cyt
p1774
aVTIM
p1775
aVTIMProtein__unphosphorylated__
p1776
atp1777
Rp1778
aI4
aa(lp1779
g2
((lp1780
VGLUT4
p1781
aVcytoplasm_GLUT4
p1782
aVIntracellularGLUT4
p1783
atp1784
Rp1785
aI4
aa(lp1786
g2
((lp1787
VTGFb1
p1788
aVTGFb
p1789
aVTGF_beta
p1790
aVTGF_beta_endo
p1791
aVTGFb_pool
p1792
atp1793
Rp1794
aI4
aa(lp1795
g2
((lp1796
VIKK
p1797
atp1798
Rp1799
aI4
aa(lp1800
g2
((lp1801
VSK
p1802
aVCln
p1803
aVcig1pl
p1804
atp1805
Rp1806
aI4
aa(lp1807
g2
((lp1808
VT6P
p1809
aVtrehalose6_phosphate
p1810
aValpha_alpha_trehalose6_phosphate__intracellular__
p1811
atp1812
Rp1813
aI4
aa(lp1814
g2
((lp1815
VMih1a
p1816
aVCdc25
p1817
aVStgn
p1818
aVStgc
p1819
atp1820
Rp1821
aI4
aa(lp1822
g2
((lp1823
VXIAP
p1824
atp1825
Rp1826
aI4
aa(lp1827
g2
((lp1828
VProCasp9
p1829
aVXIAP_p2frag_2mSMAC
p1830
aVproC9
p1831
aVCaspase9
p1832
atp1833
Rp1834
aI4
aa(lp1835
g2
((lp1836
VMt
p1837
aVmTOR
p1838
atp1839
Rp1840
aI4
aa(lp1841
g2
((lp1842
VC_3
p1843
aVC2
p1844
aVC1
p1845
aV__XSI__highenergyintermediateinoxidativephosphorylation
p1846
aVC3_Gene
p1847
atp1848
Rp1849
aI4
aa(lp1850
g2
((lp1851
VIR_complex
p1852
aVIR
p1853
aVInR
p1854
atp1855
Rp1856
aI4
aa(lp1857
g2
((lp1858
VGlycogenSynthaseKinase_3_Beta_
p1859
aVGsk3
p1860
aVGSK3beta
p1861
aVGSK3B
p1862
atp1863
Rp1864
aI4
aa(lp1865
g2
((lp1866
V__DGA__1_3diphosphoglycerate
p1867
aVBPG
p1868
atp1869
Rp1870
aI4
aa(lp1871
g2
((lp1872
VP2
p1873
aVP3
p1874
aVP3mRNA
p1875
aVP1
p1876
atp1877
Rp1878
aI4
aa(lp1879
g2
((lp1880
VPKC
p1881
aVPKCactive_2
p1882
aVPKCactive_3
p1883
atp1884
Rp1885
aI4
aa(lp1886
g2
((lp1887
VGLX
p1888
aVglyoxylate__intracellular__
p1889
aVglyoxylate
p1890
atp1891
Rp1892
aI4
aa(lp1893
g2
((lp1894
VPIP3
p1895
atp1896
Rp1897
aI4
aa(lp1898
g2
((lp1899
VPP2
p1900
aVPhosp2
p1901
aVPhosp3
p1902
atp1903
Rp1904
aI4
aa(lp1905
g2
((lp1906
VMet_tRNA
p1907
aVtRNA__Met__
p1908
atp1909
Rp1910
aI4
aa(lp1911
g2
((lp1912
VL_glutamic5_semialdehyde__intracellular__
p1913
aVL_Glutamate5_semialdehyde
p1914
atp1915
Rp1916
aI4
aa(lp1917
g2
((lp1918
VSulfite
p1919
aVsulphite__intracellular__
p1920
atp1921
Rp1922
aI4
aa(lp1923
g2
((lp1924
VS
p1925
aVSubstrate
p1926
atp1927
Rp1928
aI3
aa(lp1929
g2
((lp1930
VIPTG
p1931
atp1932
Rp1933
aI3
aa(lp1934
g2
((lp1935
VAPLC
p1936
aVPLC_beta_
p1937
aVactivePLC
p1938
atp1939
Rp1940
aI3
aa(lp1941
g2
((lp1942
Va
p1943
aVACh
p1944
atp1945
Rp1946
aI3
aa(lp1947
g2
((lp1948
VAPP
p1949
aVb
p1950
atp1951
Rp1952
aI3
aa(lp1953
g2
((lp1954
VSTAT1Cm_2
p1955
aVPstat_sol
p1956
aVSTAT1Nm_2
p1957
atp1958
Rp1959
aI3
aa(lp1960
g2
((lp1961
VTGFbR
p1962
aVTGF_RI
p1963
aVReceptor1
p1964
atp1965
Rp1966
aI3
aa(lp1967
g2
((lp1968
VTGF_RII
p1969
aVT2R_Surf
p1970
aVReceptor2
p1971
atp1972
Rp1973
aI3
aa(lp1974
g2
((lp1975
VO2_
p1976
aVO2m_
p1977
aVSuperoxide
p1978
atp1979
Rp1980
aI3
aa(lp1981
g2
((lp1982
Vp27
p1983
aVcyto__p21__b__
p1984
aVP27
p1985
aVnuc__p21__b__
p1986
atp1987
Rp1988
aI3
aa(lp1989
g2
((lp1990
VSucc
p1991
aVSuc
p1992
atp1993
Rp1994
aI3
aa(lp1995
g2
((lp1996
VHePc
p1997
aVHeP
p1998
atp1999
Rp2000
aI3
aa(lp2001
g2
((lp2002
VHCO3_
p2003
aVbicarbonate__intracellular__
p2004
atp2005
Rp2006
aI3
aa(lp2007
g2
((lp2008
VCL_
p2009
aVChloride
p2010
atp2011
Rp2012
aI3
aa(lp2013
g2
((lp2014
VCr
p2015
atp2016
Rp2017
aI3
aa(lp2018
g2
((lp2019
VH
p2020
aVHc
p2021
atp2022
Rp2023
aI3
aa(lp2024
g2
((lp2025
Vb_Ser
p2026
aVm_Serine
p2027
aVSer
p2028
aVb_Serine
p2029
atp2030
Rp2031
aI3
aa(lp2032
g2
((lp2033
VG_M
p2034
aVG
p2035
atp2036
Rp2037
aI3
aa(lp2038
g2
((lp2039
VMAPKKKactivator__Ras__
p2040
aVRAFkinase
p2041
aVRAFK
p2042
atp2043
Rp2044
aI3
aa(lp2045
g2
((lp2046
VUDPglucose
p2047
aVUDP_D_glucose__intracellular__
p2048
atp2049
Rp2050
aI3
aa(lp2051
g2
((lp2052
Vdiphosphate
p2053
aVPPi
p2054
atp2055
Rp2056
aI3
aa(lp2057
g2
((lp2058
VRas_active
p2059
aVRas
p2060
aVRasi
p2061
atp2062
Rp2063
aI3
aa(lp2064
g2
((lp2065
VProteasome
p2066
aVubiquitinProtease2
p2067
aVubiquitinProtease1
p2068
aVproteasome
p2069
atp2070
Rp2071
aI3
aa(lp2072
g2
((lp2073
VAPAF_1
p2074
aVApaf
p2075
atp2076
Rp2077
aI3
aa(lp2078
g2
((lp2079
VG1Ppool
p2080
aVG1P
p2081
atp2082
Rp2083
aI3
aa(lp2084
g2
((lp2085
VX5P
p2086
aVD_xylulose5_phosphate__intracellular__
p2087
atp2088
Rp2089
aI3
aa(lp2090
g2
((lp2091
VS6K
p2092
atp2093
Rp2094
aI3
aa(lp2095
g2
((lp2096
VAS160
p2097
atp2098
Rp2099
aI3
aa(lp2100
g2
((lp2101
V_Beta__Catenin
p2102
aVbCatenin_ast
p2103
aVbCatenin
p2104
aVBeta_catenin
p2105
atp2106
Rp2107
aI3
aa(lp2108
g2
((lp2109
VGri3P
p2110
aV__PGA__3phosphoglycerate
p2111
aVP3G
p2112
atp2113
Rp2114
aI3
aa(lp2115
g2
((lp2116
VS1
p2117
aVSTAT1
p2118
atp2119
Rp2120
aI3
aa(lp2121
g2
((lp2122
VcLc
p2123
atp2124
Rp2125
aI3
aa(lp2126
g2
((lp2127
VIkBb
p2128
atp2129
Rp2130
aI3
aa(lp2131
g2
((lp2132
VIkBe
p2133
atp2134
Rp2135
aI3
aa(lp2136
g2
((lp2137
Vadenine
p2138
aVAdenine
p2139
atp2140
Rp2141
aI3
aa(lp2142
g2
((lp2143
VTRAF2
p2144
aVTNFR
p2145
aVRIP
p2146
aVTNFR1
p2147
aVTNF
p2148
aVTRADD
p2149
aVTNFRC1
p2150
aVTNFRCint2
p2151
atp2152
Rp2153
aI3
aa(lp2154
g2
((lp2155
VA20
p2156
atp2157
Rp2158
aI3
aa(lp2159
g2
((lp2160
VcZTL
p2161
atp2162
Rp2163
aI3
aa(lp2164
g2
((lp2165
VL_Arg
p2166
aVL_arginine__intracellular__
p2167
atp2168
Rp2169
aI3
aa(lp2170
g2
((lp2171
Vb_Glutamate
p2172
aVglu
p2173
atp2174
Rp2175
aI3
aa(lp2176
g2
((lp2177
VPk
p2178
atp2179
Rp2180
aI3
aa(lp2181
g2
((lp2182
VPS
p2183
atp2184
Rp2185
aI3
aa(lp2186
g2
((lp2187
VXI
p2188
atp2189
Rp2190
aI3
aa(lp2191
g2
((lp2192
VXII
p2193
atp2194
Rp2195
aI3
aa(lp2196
g2
((lp2197
VTmod
p2198
atp2199
Rp2200
aI3
aa(lp2201
g2
((lp2202
VVK
p2203
atp2204
Rp2205
aI3
aa(lp2206
g2
((lp2207
VMg
p2208
aVmagnesium
p2209
atp2210
Rp2211
aI3
aa(lp2212
g2
((lp2213
VFT1
p2214
aVFe2pl
p2215
atp2216
Rp2217
aI3
aa(lp2218
g2
((lp2219
VSrc
p2220
atp2221
Rp2222
aI3
aa(lp2223
g2
((lp2224
VMEKK1
p2225
aVMEKK1abcdef
p2226
atp2227
Rp2228
aI3
aa(lp2229
g2
((lp2230
VJNK
p2231
atp2232
Rp2233
aI3
aa(lp2234
g2
((lp2235
Vsuccinyl_CoA
p2236
aVSuccinyl_CoA
p2237
atp2238
Rp2239
aI3
aa(lp2240
g2
((lp2241
VEPn
p2242
atp2243
Rp2244
aI3
aa(lp2245
g2
((lp2246
VGAR
p2247
aVN__1_____5_phospho_D_ribosyl__glycinamide__intracellular__
p2248
atp2249
Rp2250
aI3
aa(lp2251
g2
((lp2252
VFe3pl
p2253
atp2254
Rp2255
aI3
aa(lp2256
g2
((lp2257
VL_2_aminoadipate
p2258
atp2259
Rp2260
aI3
aa(lp2261
g2
((lp2262
VtRNA__Arg__
p2263
atp2264
Rp2265
aI3
aa(lp2266
g2
((lp2267
VTrp_tRNA__Trp__
p2268
atp2269
Rp2270
aI3
aa(lp2271
g2
((lp2272
VdADP
p2273
atp2274
Rp2275
aI3
aa(lp2276
g2
((lp2277
VGly_tRNA__Gly__
p2278
atp2279
Rp2280
aI3
aa(lp2281
g2
((lp2282
VSer_tRNA__Ser__
p2283
atp2284
Rp2285
aI3
aa(lp2286
g2
((lp2287
VCys_tRNA__Cys__
p2288
atp2289
Rp2290
aI3
aa(lp2291
g2
((lp2292
VPhe_tRNA__Phe__
p2293
atp2294
Rp2295
aI3
aa(lp2296
g2
((lp2297
VtRNA__Trp__
p2298
atp2299
Rp2300
aI3
aa(lp2301
g2
((lp2302
VdCDP
p2303
atp2304
Rp2305
aI3
aa(lp2306
g2
((lp2307
VdGDP
p2308
atp2309
Rp2310
aI3
aa(lp2311
g2
((lp2312
VMet_tRNA__Met__
p2313
atp2314
Rp2315
aI3
aa(lp2316
g2
((lp2317
VtRNA__His__
p2318
atp2319
Rp2320
aI3
aa(lp2321
g2
((lp2322
Vsphinganine
p2323
atp2324
Rp2325
aI3
aa(lp2326
g2
((lp2327
Vsulphite
p2328
atp2329
Rp2330
aI3
aa(lp2331
g2
((lp2332
VIle_tRNA__Ile__
p2333
atp2334
Rp2335
aI3
aa(lp2336
g2
((lp2337
VtRNA__Leu__
p2338
atp2339
Rp2340
aI3
aa(lp2341
g2
((lp2342
VTyr_tRNA__Tyr__
p2343
atp2344
Rp2345
aI3
aa(lp2346
g2
((lp2347
VdAMP
p2348
atp2349
Rp2350
aI3
aa(lp2351
g2
((lp2352
V__R___5_phosphomevalonicacid
p2353
atp2354
Rp2355
aI3
aa(lp2356
g2
((lp2357
Vphosphoribosyl_formamido_carboxamide
p2358
atp2359
Rp2360
aI3
aa(lp2361
g2
((lp2362
VtRNA__Gln__
p2363
atp2364
Rp2365
aI3
aa(lp2366
g2
((lp2367
VO_acetyl_L_homoserine
p2368
atp2369
Rp2370
aI3
aa(lp2371
g2
((lp2372
Vubiquinone_6
p2373
atp2374
Rp2375
aI3
aa(lp2376
g2
((lp2377
VtRNA__Ala__
p2378
atp2379
Rp2380
aI3
aa(lp2381
g2
((lp2382
VTRX1
p2383
atp2384
Rp2385
aI3
aa(lp2386
g2
((lp2387
VtRNA__Cys__
p2388
atp2389
Rp2390
aI3
aa(lp2391
g2
((lp2392
VGln_tRNA__Gln__
p2393
atp2394
Rp2395
aI3
aa(lp2396
g2
((lp2397
V__1__6___beta_D_glucan
p2398
atp2399
Rp2400
aI3
aa(lp2401
g2
((lp2402
VHis_tRNA__His__
p2403
atp2404
Rp2405
aI3
aa(lp2406
g2
((lp2407
Vphosphoribosyl_carboxy_aminoimidazole
p2408
atp2409
Rp2410
aI3
aa(lp2411
g2
((lp2412
VtRNA__Phe__
p2413
atp2414
Rp2415
aI3
aa(lp2416
g2
((lp2417
VLeu_tRNA__Leu__
p2418
atp2419
Rp2420
aI3
aa(lp2421
g2
((lp2422
VThr_tRNA__Thr__
p2423
atp2424
Rp2425
aI3
aa(lp2426
g2
((lp2427
VtRNA__Asp__
p2428
atp2429
Rp2430
aI3
aa(lp2431
g2
((lp2432
Visopentenyldiphosphate
p2433
atp2434
Rp2435
aI3
aa(lp2436
g2
((lp2437
VAsp_tRNA__Asp__
p2438
atp2439
Rp2440
aI3
aa(lp2441
g2
((lp2442
VtRNA__Gly__
p2443
atp2444
Rp2445
aI3
aa(lp2446
g2
((lp2447
VtRNA__Val__
p2448
atp2449
Rp2450
aI3
aa(lp2451
g2
((lp2452
Vacyl_CoA
p2453
atp2454
Rp2455
aI3
aa(lp2456
g2
((lp2457
VtRNA__Lys__
p2458
atp2459
Rp2460
aI3
aa(lp2461
g2
((lp2462
VtRNA__Ser__
p2463
atp2464
Rp2465
aI3
aa(lp2466
g2
((lp2467
VtRNA__Tyr__
p2468
atp2469
Rp2470
aI3
aa(lp2471
g2
((lp2472
VAsn_tRNA__Asn__
p2473
atp2474
Rp2475
aI3
aa(lp2476
g2
((lp2477
VL_saccharopine
p2478
atp2479
Rp2480
aI3
aa(lp2481
g2
((lp2482
VtRNA__Asn__
p2483
atp2484
Rp2485
aI3
aa(lp2486
g2
((lp2487
VLys_tRNA__Lys__
p2488
atp2489
Rp2490
aI3
aa(lp2491
g2
((lp2492
VtRNA__Thr__
p2493
atp2494
Rp2495
aI3
aa(lp2496
g2
((lp2497
Vlauroyl_CoA
p2498
atp2499
Rp2500
aI3
aa(lp2501
g2
((lp2502
VArg_tRNA__Arg__
p2503
atp2504
Rp2505
aI3
aa(lp2506
g2
((lp2507
VtRNA__Pro__
p2508
atp2509
Rp2510
aI3
aa(lp2511
g2
((lp2512
Vhomocitrate
p2513
atp2514
Rp2515
aI3
aa(lp2516
g2
((lp2517
Vstearoyl_CoA
p2518
atp2519
Rp2520
aI3
aa(lp2521
g2
((lp2522
VtRNA__Ile__
p2523
atp2524
Rp2525
aI3
aa(lp2526
g2
((lp2527
VdGMP
p2528
atp2529
Rp2530
aI3
aa(lp2531
g2
((lp2532
Vpalmitoyl_CoA
p2533
atp2534
Rp2535
aI3
aa(lp2536
g2
((lp2537
VVal_tRNA__Val__
p2538
atp2539
Rp2540
aI3
aa(lp2541
g2
((lp2542
VPro_tRNA__Pro__
p2543
atp2544
Rp2545
aI3
aa(lp2546
g2
((lp2547
VGDP_alpha_D_mannose
p2548
atp2549
Rp2550
aI3
aa(lp2551
g2
((lp2552
VAla_tRNA__Ala__
p2553
atp2554
Rp2555
aI3
aa(lp2556
g2
((lp2557
VTRX1disulphide
p2558
aVthioredoxindisulfide__intracellular__
p2559
atp2560
Rp2561
aI3
aa(lp2562
g2
((lp2563
Vfree_BoNT_A
p2564
aVbulk_BoNT_A
p2565
atp2566
Rp2567
aI2
aa(lp2568
g2
((lp2569
VCAR1
p2570
atp2571
Rp2572
aI2
aa(lp2573
g2
((lp2574
VACA
p2575
atp2576
Rp2577
aI2
aa(lp2578
g2
((lp2579
VHOm
p2580
aVOH_radical
p2581
atp2582
Rp2583
aI2
aa(lp2584
g2
((lp2585
VEpoR
p2586
atp2587
Rp2588
aI2
aa(lp2589
g2
((lp2590
VX1p
p2591
aVSte11
p2592
aVY1p
p2593
atp2594
Rp2595
aI2
aa(lp2596
g2
((lp2597
VAcs
p2598
aVAcetyl_CoAsynthase
p2599
atp2600
Rp2601
aI2
aa(lp2602
g2
((lp2603
VAux_IAA
p2604
atp2605
Rp2606
aI2
aa(lp2607
g2
((lp2608
VARF
p2609
atp2610
Rp2611
aI2
aa(lp2612
g2
((lp2613
Vg
p2614
atp2615
Rp2616
aI2
aa(lp2617
g2
((lp2618
VAP1
p2619
aVcFOS
p2620
aVcFOSpreRNA
p2621
aVpc_FOS
p2622
aVcFOSmRNA
p2623
atp2624
Rp2625
aI2
aa(lp2626
g2
((lp2627
VRec
p2628
atp2629
Rp2630
aI2
aa(lp2631
g2
((lp2632
VMPF
p2633
aVMPFn
p2634
aVMPFc
p2635
atp2636
Rp2637
aI2
aa(lp2638
g2
((lp2639
VCycE
p2640
aVCycD
p2641
aVCycBt
p2642
atp2643
Rp2644
aI2
aa(lp2645
g2
((lp2646
VEffector
p2647
atp2648
Rp2649
aI2
aa(lp2650
g2
((lp2651
Vz1
p2652
atp2653
Rp2654
aI2
aa(lp2655
g2
((lp2656
VBasal
p2657
atp2658
Rp2659
aI2
aa(lp2660
g2
((lp2661
VVRI
p2662
atp2663
Rp2664
aI2
aa(lp2665
g2
((lp2666
VPDP
p2667
atp2668
Rp2669
aI2
aa(lp2670
g2
((lp2671
Vmass
p2672
aVm
p2673
atp2674
Rp2675
aI2
aa(lp2676
g2
((lp2677
Vrum1T
p2678
aVrum1pl
p2679
atp2680
Rp2681
aI2
aa(lp2682
g2
((lp2683
Vste9
p2684
aVSrw1
p2685
atp2686
Rp2687
aI2
aa(lp2688
g2
((lp2689
VN1_Acetylspermine
p2690
aVAcetylspermine
p2691
atp2692
Rp2693
aI2
aa(lp2694
g2
((lp2695
VATIII
p2696
atp2697
Rp2698
aI2
aa(lp2699
g2
((lp2700
VCYC
p2701
aVCyc_cyt
p2702
atp2703
Rp2704
aI2
aa(lp2705
g2
((lp2706
VY
p2707
atp2708
Rp2709
aI2
aa(lp2710
g2
((lp2711
VZ
p2712
atp2713
Rp2714
aI2
aa(lp2715
g2
((lp2716
VW
p2717
atp2718
Rp2719
aI2
aa(lp2720
g2
((lp2721
VRKIP
p2722
atp2723
Rp2724
aI2
aa(lp2725
g2
((lp2726
VPDS1
p2727
aVsecurin
p2728
aVsecurinT
p2729
atp2730
Rp2731
aI2
aa(lp2732
g2
((lp2733
VCDC15
p2734
aVCdc15
p2735
atp2736
Rp2737
aI2
aa(lp2738
g2
((lp2739
VESP1
p2740
aVseparase
p2741
aVseparaseT
p2742
atp2743
Rp2744
aI2
aa(lp2745
g2
((lp2746
VClb2
p2747
atp2748
Rp2749
aI2
aa(lp2750
g2
((lp2751
VNET1
p2752
aVNet1
p2753
atp2754
Rp2755
aI2
aa(lp2756
g2
((lp2757
VAA
p2758
aVHETE_aw
p2759
aVAA_aw
p2760
aVAA_b
p2761
aVLTA4_aw
p2762
aVHn_aw
p2763
aVHETE_b
p2764
aVLTA4_b
p2765
aVEO_b
p2766
aVIL_aw
p2767
atp2768
Rp2769
aI2
aa(lp2770
g2
((lp2771
VG_beta__gamma__2
p2772
aVGsa_gtp
p2773
atp2774
Rp2775
aI2
aa(lp2776
g2
((lp2777
VPPX
p2778
atp2779
Rp2780
aI2
aa(lp2781
g2
((lp2782
VNICD
p2783
aVNotchprotein
p2784
atp2785
Rp2786
aI2
aa(lp2787
g2
((lp2788
VPhosphatescytosol
p2789
aVPhosphate
p2790
aVPhosphatesinGlycosome
p2791
atp2792
Rp2793
aI2
aa(lp2794
g2
((lp2795
VMalate
p2796
atp2797
Rp2798
aI2
aa(lp2799
g2
((lp2800
VIsocitrate
p2801
atp2802
Rp2803
aI2
aa(lp2804
g2
((lp2805
VF2_6BP
p2806
atp2807
Rp2808
aI2
aa(lp2809
g2
((lp2810
VSig
p2811
atp2812
Rp2813
aI2
aa(lp2814
g2
((lp2815
VFps1
p2816
atp2817
Rp2818
aI2
aa(lp2819
g2
((lp2820
VHog1
p2821
atp2822
Rp2823
aI2
aa(lp2824
g2
((lp2825
VCasp6
p2826
aVproC6
p2827
atp2828
Rp2829
aI2
aa(lp2830
g2
((lp2831
VPARP
p2832
atp2833
Rp2834
aI2
aa(lp2835
g2
((lp2836
VFrizzled
p2837
aVFrzzl
p2838
atp2839
Rp2840
aI2
aa(lp2841
g2
((lp2842
VWnt
p2843
atp2844
Rp2845
aI2
aa(lp2846
g2
((lp2847
VShh
p2848
aVHedgehog
p2849
atp2850
Rp2851
aI2
aa(lp2852
g2
((lp2853
VPatched
p2854
aVPtch1
p2855
atp2856
Rp2857
aI2
aa(lp2858
g2
((lp2859
VPeP
p2860
atp2861
Rp2862
aI2
aa(lp2863
g2
((lp2864
VF26BPc
p2865
atp2866
Rp2867
aI2
aa(lp2868
g2
((lp2869
VRib_g
p2870
atp2871
Rp2872
aI2
aa(lp2873
g2
((lp2874
Vc_5_10_methenyl_THF
p2875
aVm_5_10_methenyl_THF
p2876
atp2877
Rp2878
aI2
aa(lp2879
g2
((lp2880
VSarcosine
p2881
atp2882
Rp2883
aI2
aa(lp2884
g2
((lp2885
VFormaldehyde
p2886
atp2887
Rp2888
aI2
aa(lp2889
g2
((lp2890
Vb_Methionine
p2891
aVb_Met
p2892
atp2893
Rp2894
aI2
aa(lp2895
g2
((lp2896
VBetaine
p2897
atp2898
Rp2899
aI2
aa(lp2900
g2
((lp2901
Vc_5_methyl_THF
p2902
atp2903
Rp2904
aI2
aa(lp2905
g2
((lp2906
VDimethylglycine
p2907
atp2908
Rp2909
aI2
aa(lp2910
g2
((lp2911
Vc_10_formyl_THF
p2912
atp2913
Rp2914
aI2
aa(lp2915
g2
((lp2916
VFru_e
p2917
atp2918
Rp2919
aI2
aa(lp2920
g2
((lp2921
VCBP
p2922
atp2923
Rp2924
aI2
aa(lp2925
g2
((lp2926
VFAK
p2927
atp2928
Rp2929
aI2
aa(lp2930
g2
((lp2931
VKLF2
p2932
atp2933
Rp2934
aI2
aa(lp2935
g2
((lp2936
VJNKK
p2937
atp2938
Rp2939
aI2
aa(lp2940
g2
((lp2941
VIRAK1
p2942
atp2943
Rp2944
aI2
aa(lp2945
g2
((lp2946
VPP2C
p2947
atp2948
Rp2949
aI2
aa(lp2950
g2
((lp2951
VCK1
p2952
atp2953
Rp2954
aI2
aa(lp2955
g2
((lp2956
VCDK5
p2957
atp2958
Rp2959
aI2
aa(lp2960
g2
((lp2961
VHRG
p2962
atp2963
Rp2964
aI2
aa(lp2965
g2
((lp2966
VAKG
p2967
aVoxoglutarate
p2968
atp2969
Rp2970
aI2
aa(lp2971
g2
((lp2972
VRho_kinase
p2973
aVROK
p2974
atp2975
Rp2976
aI2
aa(lp2977
g2
((lp2978
VHsc70
p2979
atp2980
Rp2981
aI2
aa(lp2982
g2
((lp2983
Vcbl
p2984
atp2985
Rp2986
aI2
aa(lp2987
g2
((lp2988
VTP4
p2989
atp2990
Rp2991
aI2
aa(lp2992
g2
((lp2993
Vp65
p2994
atp2995
Rp2996
aI2
aa(lp2997
g2
((lp2998
Vergosterolester
p2999
atp3000
Rp3001
aI2
aa(lp3002
g2
((lp3003
Vceramide_4__C24__
p3004
atp3005
Rp3006
aI2
aa(lp3007
g2
((lp3008
Vceramide_3__C24__
p3009
atp3010
Rp3011
aI2
aa(lp3012
g2
((lp3013
Vergosta_5_7_24__28___trien_3beta_ol
p3014
atp3015
Rp3016
aI2
aa(lp3017
g2
((lp3018
Vphytosphingosine
p3019
atp3020
Rp3021
aI2
aa(lp3022
g2
((lp3023
Vinositol_P_ceramideD__C24__
p3024
atp3025
Rp3026
aI2
aa(lp3027
g2
((lp3028
VNicotinateD_ribonucleotide
p3029
atp3030
Rp3031
aI2
aa(lp3032
g2
((lp3033
VAcetylphosphate
p3034
atp3035
Rp3036
aI2
aa(lp3037
g2
((lp3038
VO_Acetyl_L_serine
p3039
atp3040
Rp3041
aI2
aa(lp3042
g2
((lp3043
VdCTP
p3044
atp3045
Rp3046
aI2
aa(lp3047
g2
((lp3048
VUndecaprenyl_diphospho_N_acetylmuramoyl_L_alanyl_D_glutamyl_meso_2_6_diaminopimeloyl_D_alanyl_D_alanine
p3049
atp3050
Rp3051
aI2
aa(lp3052
g2
((lp3053
VL_2_Amino_3_oxobutanoate
p3054
atp3055
Rp3056
aI2
aa(lp3057
g2
((lp3058
VLL_2_6_Diaminoheptanedioate
p3059
atp3060
Rp3061
aI2
aa(lp3062
g2
((lp3063
VUDP_N_acetyl_3_O___1_carboxyvinyl___D_glucosamine
p3064
atp3065
Rp3066
aI2
aa(lp3067
g2
((lp3068
VThiaminmonophosphate
p3069
atp3070
Rp3071
aI2
aa(lp3072
g2
((lp3073
VUDP_N_acetylmuramoyl_L_alanyl_D_glutamyl_meso_2_6_diaminopimeloyl_D_alanyl_D_alanine
p3074
atp3075
Rp3076
aI2
aa(lp3077
g2
((lp3078
VD_Arabinose5_phosphate
p3079
atp3080
Rp3081
aI2
aa(lp3082
g2
((lp3083
VDimethylallyldiphosphate
p3084
atp3085
Rp3086
aI2
aa(lp3087
g2
((lp3088
VPyridoxal5_phosphate
p3089
atp3090
Rp3091
aI2
aa(lp3092
g2
((lp3093
V__S___3_Hydroxyoctanoyl_CoA
p3094
atp3095
Rp3096
aI2
aa(lp3097
g2
((lp3098
VIminoaspartate
p3099
atp3100
Rp3101
aI2
aa(lp3102
g2
((lp3103
VPalmitoyl_ACP__n_C16_0ACP__
p3104
atp3105
Rp3106
aI2
aa(lp3107
g2
((lp3108
V__R___Glycerate
p3109
atp3110
Rp3111
aI2
aa(lp3112
g2
((lp3113
VdGTP
p3114
atp3115
Rp3116
aI2
aa(lp3117
g2
((lp3118
Vpotassium
p3119
atp3120
Rp3121
aI2
aa(lp3122
g2
((lp3123
VD_Alanyl_D_alanine
p3124
atp3125
Rp3126
aI2
aa(lp3127
g2
((lp3128
VUDP_N_acetyl_D_glucosamine
p3129
atp3130
Rp3131
aI2
aa(lp3132
g2
((lp3133
VD_4_Phosphopantothenate
p3134
atp3135
Rp3136
aI2
aa(lp3137
g2
((lp3138
VL_Glutamate1_semialdehyde
p3139
atp3140
Rp3141
aI2
aa(lp3142
g2
((lp3143
VDodecanoyl_ACP__n_C12_0ACP__
p3144
atp3145
Rp3146
aI2
aa(lp3147
g2
((lp3148
V__S___3_Hydroxyhexanoyl_CoA
p3149
atp3150
Rp3151
aI2
aa(lp3152
g2
((lp3153
VDethiobiotin
p3154
atp3155
Rp3156
aI2
aa(lp3157
g2
((lp3158
V__S___3_Hydroxytetradecanoyl_CoA
p3159
atp3160
Rp3161
aI2
aa(lp3162
g2
((lp3163
V__R___3_Hydroxytetradecanoyl___acyl_carrierprotein__
p3164
atp3165
Rp3166
aI2
aa(lp3167
g2
((lp3168
VCo2pl
p3169
atp3170
Rp3171
aI2
aa(lp3172
g2
((lp3173
VKDO__2___lipidIV__A__
p3174
atp3175
Rp3176
aI2
aa(lp3177
g2
((lp3178
VBiotin
p3179
atp3180
Rp3181
aI2
aa(lp3182
g2
((lp3183
VThiaminediphosphate
p3184
atp3185
Rp3186
aI2
aa(lp3187
g2
((lp3188
Vcyclicpyranopterinmonophosphate
p3189
atp3190
Rp3191
aI2
aa(lp3192
g2
((lp3193
VZinc
p3194
atp3195
Rp3196
aI2
aa(lp3197
g2
((lp3198
V__S___3_Hydroxydecanoyl_CoA
p3199
atp3200
Rp3201
aI2
aa(lp3202
g2
((lp3203
VUndecaprenylphosphate
p3204
atp3205
Rp3206
aI2
aa(lp3207
g2
((lp3208
VdTDP
p3209
atp3210
Rp3211
aI2
aa(lp3212
g2
((lp3213
VMalonyl___acyl_carrierprotein__
p3214
atp3215
Rp3216
aI2
aa(lp3217
g2
((lp3218
VButanoyl_CoA
p3219
atp3220
Rp3221
aI2
aa(lp3222
g2
((lp3223
VdTTP
p3224
atp3225
Rp3226
aI2
aa(lp3227
g2
((lp3228
Vall_trans_Octaprenyldiphosphate
p3229
atp3230
Rp3231
aI2
aa(lp3232
g2
((lp3233
VPyridoxine5_phosphate
p3234
atp3235
Rp3236
aI2
aa(lp3237
g2
((lp3238
VUDP_N_acetylmuramoyl_L_alanyl_D_glutamate
p3239
atp3240
Rp3241
aI2
aa(lp3242
g2
((lp3243
VHexanoyl_CoA__n_C6_0CoA__
p3244
atp3245
Rp3246
aI2
aa(lp3247
g2
((lp3248
VProtoporphyrinogenIX
p3249
atp3250
Rp3251
aI2
aa(lp3252
g2
((lp3253
VIndole
p3254
atp3255
Rp3256
aI2
aa(lp3257
g2
((lp3258
VMethanol
p3259
atp3260
Rp3261
aI2
aa(lp3262
g2
((lp3263
VN_Acetyl_D_glucosamine1_phosphate
p3264
atp3265
Rp3266
aI2
aa(lp3267
g2
((lp3268
VPantetheine4_phosphate
p3269
atp3270
Rp3271
aI2
aa(lp3272
g2
((lp3273
VN_Acetyl_L_glutamate5_semialdehyde
p3274
atp3275
Rp3276
aI2
aa(lp3277
g2
((lp3278
VAdenosine5_phosphosulfate
p3279
atp3280
Rp3281
aI2
aa(lp3282
g2
((lp3283
Vdehydroglycine
p3284
atp3285
Rp3286
aI2
aa(lp3287
g2
((lp3288
VUDP_N_acetylmuramate
p3289
atp3290
Rp3291
aI2
aa(lp3292
g2
((lp3293
VFlavodoxinreduced
p3294
atp3295
Rp3296
aI2
aa(lp3297
g2
((lp3298
VO_Succinyl_L_homoserine
p3299
atp3300
Rp3301
aI2
aa(lp3302
g2
((lp3303
VLipidADisaccharide
p3304
atp3305
Rp3306
aI2
aa(lp3307
g2
((lp3308
VShikimate5_phosphate
p3309
atp3310
Rp3311
aI2
aa(lp3312
g2
((lp3313
V__S___3_Hydroxybutanoyl_CoA
p3314
atp3315
Rp3316
aI2
aa(lp3317
g2
((lp3318
Vmolybdenumcofactor
p3319
atp3320
Rp3321
aI2
aa(lp3322
g2
((lp3323
VHydroxymethylbilane
p3324
atp3325
Rp3326
aI2
aa(lp3327
g2
((lp3328
Vnickel
p3329
atp3330
Rp3331
aI2
aa(lp3332
g2
((lp3333
VMolybdate
p3334
atp3335
Rp3336
aI2
aa(lp3337
g2
((lp3338
VDeamino_NADpl
p3339
atp3340
Rp3341
aI2
aa(lp3342
g2
((lp3343
VUDP_N_acetylmuramoyl_L_alanine
p3344
atp3345
Rp3346
aI2
aa(lp3347
g2
((lp3348
VFMN
p3349
atp3350
Rp3351
aI2
aa(lp3352
g2
((lp3353
VN1___5_Phospho_D_ribosyl__glycinamide
p3354
atp3355
Rp3356
aI2
aa(lp3357
g2
((lp3358
V__S___3_Hydroxyhexadecanoyl_CoA
p3359
atp3360
Rp3361
aI2
aa(lp3362
g2
((lp3363
VO_Phospho_4_hydroxy_L_threonine
p3364
atp3365
Rp3366
aI2
aa(lp3367
g2
((lp3368
VHexadecenoate__n_C16_1__
p3369
atp3370
Rp3371
aI2
aa(lp3372
g2
((lp3373
VQuinolinate
p3374
atp3375
Rp3376
aI2
aa(lp3377
g2
((lp3378
V__S___2_Acetolactate
p3379
atp3380
Rp3381
aI2
aa(lp3382
g2
((lp3383
VN_Succinyl_2_L_amino_6_oxoheptanedioate
p3384
atp3385
Rp3386
aI2
aa(lp3387
g2
((lp3388
VS_Adenosyl_4_methylthio_2_oxobutanoate
p3389
atp3390
Rp3391
aI2
aa(lp3392
g2
((lp3393
VN2_Formyl_N1___5_phospho_D_ribosyl__glycinamide
p3394
atp3395
Rp3396
aI2
aa(lp3397
g2
((lp3398
VCDP
p3399
atp3400
Rp3401
aI2
aa(lp3402
g2
((lp3403
VDihydropteroate
p3404
atp3405
Rp3406
aI2
aa(lp3407
g2
((lp3408
VKDO_lipidIV__A__
p3409
atp3410
Rp3411
aI2
aa(lp3412
g2
((lp3413
VD_Glucosamine6_phosphate
p3414
atp3415
Rp3416
aI2
aa(lp3417
g2
((lp3418
V__R___Pantoate
p3419
atp3420
Rp3421
aI2
aa(lp3422
g2
((lp3423
VCu2pl
p3424
atp3425
Rp3426
aI2
aa(lp3427
g2
((lp3428
V__R___Pantothenate
p3429
atp3430
Rp3431
aI2
aa(lp3432
g2
((lp3433
Vbeta_Alanine
p3434
atp3435
Rp3436
aI2
aa(lp3437
g2
((lp3438
VUDP_N_acetylmuramoyl_L_alanyl_D_gamma_glutamyl_meso_2_6_diaminopimelate
p3439
atp3440
Rp3441
aI2
aa(lp3442
g2
((lp3443
Vmolybdopterin
p3444
atp3445
Rp3446
aI2
aa(lp3447
g2
((lp3448
VMn2pl
p3449
atp3450
Rp3451
aI2
aa(lp3452
g2
((lp3453
Vsirohydrochlorin
p3454
atp3455
Rp3456
aI2
aa(lp3457
g2
((lp3458
VUDP_3_O___3_hydroxytetradecanoyl___D_glucosamine
p3459
atp3460
Rp3461
aI2
aa(lp3462
g2
((lp3463
Vflavodoxinsemioxidized
p3464
atp3465
Rp3466
aI2
aa(lp3467
g2
((lp3468
Vp_Cresol
p3469
atp3470
Rp3471
aI2
aa(lp3472
g2
((lp3473
VCoproporphyrinogenIII
p3474
atp3475
Rp3476
aI2
aa(lp3477
g2
((lp3478
Vacylcarrierprotein
p3479
atp3480
Rp3481
aI2
aa(lp3482
g2
((lp3483
VUndecaprenyl_diphospho_N_acetylmuramoyl___N_acetylglucosamine___L_ala_D_glu_meso_2_6_diaminopimeloyl_D_ala_D_ala
p3484
atp3485
Rp3486
aI2
aa(lp3487
g2
((lp3488
VL_Glutamate5_phosphate
p3489
atp3490
Rp3491
aI2
aa(lp3492
g2
((lp3493
V__S___3_Hydroxydodecanoyl_CoA
p3494
atp3495
Rp3496
aI2
aa(lp3497
g2
((lp3498
VDephospho_CoA
p3499
atp3500
Rp3501
aI2
aa(lp3502
g2
((lp3503
Vlauroyl_CoA__intracellular__
p3504
atp3505
Rp3506
aI2
aa(lp3507
g2
((lp3508
VD_arabinose__intracellular__
p3509
atp3510
Rp3511
aI2
aa(lp3512
g2
((lp3513
VGDP_alpha_D_mannose__intracellular__
p3514
atp3515
Rp3516
aI2
aa(lp3517
g2
((lp3518
V__R___5_phosphomevalonicacid__intracellular__
p3519
atp3520
Rp3521
aI2
aa(lp3522
g2
((lp3523
Vsphinganine__intracellular__
p3524
atp3525
Rp3526
aI2
aa(lp3527
g2
((lp3528
VFAD__intracellular__
p3529
atp3530
Rp3531
aI2
aa(lp3532
g2
((lp3533
Vmyristoyl_CoA__intracellular__
p3534
atp3535
Rp3536
aI2
aa(lp3537
g2
((lp3538
VO_phospho_L_homoserine__intracellular__
p3539
atp3540
Rp3541
aI2
aa(lp3542
g2
((lp3543
VN_tetracosanylsphinganine__intracellular__
p3544
atp3545
Rp3546
aI2
aa(lp3547
g2
((lp3548
VL_histidinol__intracellular__
p3549
atp3550
Rp3551
aI2
aa(lp3552
g2
((lp3553
V__6R___5_10_methenyltetrahydrofolicacid__intracellular__
p3554
atp3555
Rp3556
aI2
aa(lp3557
g2
((lp3558
VN__2___formyl_N__1_____5_phospho_D_ribosyl__glycinamide__intracellular__
p3559
atp3560
Rp3561
aI2
aa(lp3562
g2
((lp3563
VdATP__intracellular__
p3564
atp3565
Rp3566
aI2
aa(lp3567
g2
((lp3568
VdGDP__intracellular__
p3569
atp3570
Rp3571
aI2
aa(lp3572
g2
((lp3573
Vorotidine5___dihydrogenphosphate____intracellular__
p3574
atp3575
Rp3576
aI2
aa(lp3577
g2
((lp3578
VL_aspartate4_semialdehyde__intracellular__
p3579
atp3580
Rp3581
aI2
aa(lp3582
g2
((lp3583
Vglycerone__intracellular__
p3584
atp3585
Rp3586
aI2
aa(lp3587
g2
((lp3588
VdCMP__intracellular__
p3589
atp3590
Rp3591
aI2
aa(lp3592
g2
((lp3593
VL_lysine__intracellular__
p3594
atp3595
Rp3596
aI2
aa(lp3597
g2
((lp3598
Vfecosterol__intracellular__
p3599
atp3600
Rp3601
aI2
aa(lp3602
g2
((lp3603
VGMP__intracellular__
p3604
atp3605
Rp3606
aI2
aa(lp3607
g2
((lp3608
Vbeta_D_glucose6_phosphate__intracellular__
p3609
atp3610
Rp3611
aI2
aa(lp3612
g2
((lp3613
VN___24_hydroxytetracosanyl__sphinganine__intracellular__
p3614
atp3615
Rp3616
aI2
aa(lp3617
g2
((lp3618
Vpalmitate__intracellular__
p3619
atp3620
Rp3621
aI2
aa(lp3622
g2
((lp3623
Vmalonyl_CoA__intracellular__
p3624
atp3625
Rp3626
aI2
aa(lp3627
g2
((lp3628
VdADP__intracellular__
p3629
atp3630
Rp3631
aI2
aa(lp3632
g2
((lp3633
Vfattyacid__intracellular__
p3634
atp3635
Rp3636
aI2
aa(lp3637
g2
((lp3638
Vcarbamoylphosphate__intracellular__
p3639
atp3640
Rp3641
aI2
aa(lp3642
g2
((lp3643
V__S___3_hydroxypalmitoyl_CoA__intracellular__
p3644
atp3645
Rp3646
aI2
aa(lp3647
g2
((lp3648
V__S___dihydroorotate__intracellular__
p3649
atp3650
Rp3651
aI2
aa(lp3652
g2
((lp3653
Voctanoate__intracellular__
p3654
atp3655
Rp3656
aI2
aa(lp3657
g2
((lp3658
VL_2_aminoadipate__2_____intracellular__
p3659
atp3660
Rp3661
aI2
aa(lp3662
g2
((lp3663
Visopentenyldiphosphate__intracellular__
p3664
atp3665
Rp3666
aI2
aa(lp3667
g2
((lp3668
Vphosphatidate__intracellular__
p3669
atp3670
Rp3671
aI2
aa(lp3672
g2
((lp3673
Vtetracosanoyl_CoA__intracellular__
p3674
atp3675
Rp3676
aI2
aa(lp3677
g2
((lp3678
VGTP__intracellular__
p3679
atp3680
Rp3681
aI2
aa(lp3682
g2
((lp3683
VdAMP__intracellular__
p3684
atp3685
Rp3686
aI2
aa(lp3687
g2
((lp3688
V__2S___2_isopropyl_3_oxosuccinate__2_____intracellular__
p3689
atp3690
Rp3691
aI2
aa(lp3692
g2
((lp3693
VIMP__intracellular__
p3694
atp3695
Rp3696
aI2
aa(lp3697
g2
((lp3698
V__S___3_methyl_2_oxopentanoate__intracellular__
p3699
atp3700
Rp3701
aI2
aa(lp3702
g2
((lp3703
Vtrans_4_hydroxy_L_proline__intracellular__
p3704
atp3705
Rp3706
aI2
aa(lp3707
g2
((lp3708
VCDP__intracellular__
p3709
atp3710
Rp3711
aI2
aa(lp3712
g2
((lp3713
VN_acetyl_L_gamma_glutamylphosphate__intracellular__
p3714
atp3715
Rp3716
aI2
aa(lp3717
g2
((lp3718
VD_arabinono_1_4_lactone__intracellular__
p3719
atp3720
Rp3721
aI2
aa(lp3722
g2
((lp3723
V__S___3_hydroxytetradecanoyl_CoA__intracellular__
p3724
atp3725
Rp3726
aI2
aa(lp3727
g2
((lp3728
VdGMP__intracellular__
p3729
atp3730
Rp3731
aI2
aa(lp3732
g2
((lp3733
Vsuccinyl_CoA__intracellular__
p3734
atp3735
Rp3736
aI2
aa(lp3737
g2
((lp3738
VCMP__intracellular__
p3739
atp3740
Rp3741
aI2
aa(lp3742
g2
((lp3743
VS_adenosyl_L_homocysteine__intracellular__
p3744
atp3745
Rp3746
aI2
aa(lp3747
g2
((lp3748
Vdecanoyl_CoA__intracellular__
p3749
atp3750
Rp3751
aI2
aa(lp3752
g2
((lp3753
Vcis_aconitate__3_____intracellular__
p3754
atp3755
Rp3756
aI2
aa(lp3757
g2
((lp3758
Vadenosine3_5_bismonophosphate__intracellular__
p3759
atp3760
Rp3761
aI2
aa(lp3762
g2
((lp3763
VdUDP__intracellular__
p3764
atp3765
Rp3766
aI2
aa(lp3767
g2
((lp3768
VL_saccharopine__intracellular__
p3769
atp3770
Rp3771
aI2
aa(lp3772
g2
((lp3773
Vtriglyceride__intracellular__
p3774
atp3775
Rp3776
aI2
aa(lp3777
g2
((lp3778
VCDP_diacylglycerol__intracellular__
p3779
atp3780
Rp3781
aI2
aa(lp3782
g2
((lp3783
Vthioredoxindithiol__intracellular__
p3784
atp3785
Rp3786
aI2
aa(lp3787
g2
((lp3788
Vstearoyl_CoA__intracellular__
p3789
atp3790
Rp3791
aI2
aa(lp3792
g2
((lp3793
Vbut_1_ene_1_2_4_tricarboxylicacid__intracellular__
p3794
atp3795
Rp3796
aI2
aa(lp3797
g2
((lp3798
Vpalmitoyl_CoA__intracellular__
p3799
atp3800
Rp3801
aI2
aa(lp3802
g2
((lp3803
Voctanoyl_CoA__intracellular__
p3804
atp3805
Rp3806
aI2
aa(lp3807
g2
((lp3808
Vbiomass__intracellular__
p3809
atp3810
Rp3811
aI2
aa(lp3812
g2
((lp3813
VL_gamma_glutamylphosphate__intracellular__
p3814
atp3815
Rp3816
aI2
aa(lp3817
g2
((lp3818
V__S___3_hydroxyhexacosanoyl_CoA__intracellular__
p3819
atp3820
Rp3821
aI2
aa(lp3822
g2
((lp3823
VBrO3_
p3824
atp3825
Rp3826
aI1
aa(lp3827
g2
((lp3828
VPo1
p3829
atp3830
Rp3831
aI1
aa(lp3832
g2
((lp3833
VenzymeE__catalase__
p3834
atp3835
Rp3836
aI1
aa(lp3837
g2
((lp3838
VdonorAH2
p3839
atp3840
Rp3841
aI1
aa(lp3842
g2
((lp3843
VPyr
p3844
atp3845
Rp3846
aI1
aa(lp3847
g2
((lp3848
VAbetaPlaque
p3849
atp3850
Rp3851
aI1
aa(lp3852
g2
((lp3853
VNeprilysin
p3854
atp3855
Rp3856
aI1
aa(lp3857
g2
((lp3858
VDb
p3859
aVDa
p3860
atp3861
Rp3862
aI1
aa(lp3863
g2
((lp3864
VAnthranilatesynthase
p3865
atp3866
Rp3867
aI1
aa(lp3868
g2
((lp3869
VSynthesizedtryptophan
p3870
atp3871
Rp3872
aI1
aa(lp3873
g2
((lp3874
VG_alpha
p3875
atp3876
Rp3877
aI1
aa(lp3878
g2
((lp3879
VLA
p3880
atp3881
Rp3882
aI1
aa(lp3883
g2
((lp3884
VintracellularBSP
p3885
atp3886
Rp3887
aI1
aa(lp3888
g2
((lp3889
VcyclinB
p3890
atp3891
Rp3892
aI1
aa(lp3893
g2
((lp3894
Vprotease
p3895
atp3896
Rp3897
aI1
aa(lp3898
g2
((lp3899
VLasR
p3900
atp3901
Rp3902
aI1
aa(lp3903
g2
((lp3904
VAP_1
p3905
atp3906
Rp3907
aI1
aa(lp3908
g2
((lp3909
Vcdc2k
p3910
atp3911
Rp3912
aI1
aa(lp3913
g2
((lp3914
VCu__II__ZnSOD
p3915
atp3916
Rp3917
aI1
aa(lp3918
g2
((lp3919
VSAv
p3920
atp3921
Rp3922
aI1
aa(lp3923
g2
((lp3924
VNO3
p3925
atp3926
Rp3927
aI1
aa(lp3928
g2
((lp3929
VNO
p3930
atp3931
Rp3932
aI1
aa(lp3933
g2
((lp3934
VEpo
p3935
atp3936
Rp3937
aI1
aa(lp3938
g2
((lp3939
VFGF
p3940
atp3941
Rp3942
aI1
aa(lp3943
g2
((lp3944
VGlycogenPhosphorylase
p3945
atp3946
Rp3947
aI1
aa(lp3948
g2
((lp3949
VRu5P
p3950
atp3951
Rp3952
aI1
aa(lp3953
g2
((lp3954
VPhosphateacetyltransferase
p3955
atp3956
Rp3957
aI1
aa(lp3958
g2
((lp3959
Vlacrepressor
p3960
atp3961
Rp3962
aI1
aa(lp3963
g2
((lp3964
VUVR8M
p3965
atp3966
Rp3967
aI1
aa(lp3968
g2
((lp3969
VRUP
p3970
atp3971
Rp3972
aI1
aa(lp3973
g2
((lp3974
VHY5
p3975
atp3976
Rp3977
aI1
aa(lp3978
g2
((lp3979
VDWD
p3980
atp3981
Rp3982
aI1
aa(lp3983
g2
((lp3984
VYi
p3985
aVYj
p3986
atp3987
Rp3988
aI1
aa(lp3989
g2
((lp3990
VXj
p3991
aVXi
p3992
atp3993
Rp3994
aI1
aa(lp3995
g2
((lp3996
VMCC
p3997
atp3998
Rp3999
aI1
aa(lp4000
g2
((lp4001
Vp16
p4002
atp4003
Rp4004
aI1
aa(lp4005
g2
((lp4006
VNeuropeptide
p4007
atp4008
Rp4009
aI1
aa(lp4010
g2
((lp4011
VBetagalactosidase
p4012
atp4013
Rp4014
aI1
aa(lp4015
g2
((lp4016
Vlactose_internal
p4017
atp4018
Rp4019
aI1
aa(lp4020
g2
((lp4021
VgB
p4022
atp4023
Rp4024
aI1
aa(lp4025
g2
((lp4026
VpRSKn
p4027
atp4028
Rp4029
aI1
aa(lp4030
g2
((lp4031
VHSF1
p4032
atp4033
Rp4034
aI1
aa(lp4035
g2
((lp4036
VMelatonin
p4037
aVMelatoninfreeradical
p4038
atp4039
Rp4040
aI1
aa(lp4041
g2
((lp4042
VHydrogen
p4043
atp4044
Rp4045
aI1
aa(lp4046
g2
((lp4047
Vcdc25
p4048
atp4049
Rp4050
aI1
aa(lp4051
g2
((lp4052
VMyc
p4053
atp4054
Rp4055
aI1
aa(lp4056
g2
((lp4057
VNGF
p4058
atp4059
Rp4060
aI1
aa(lp4061
g2
((lp4062
VTrkA
p4063
aVpTrkA
p4064
atp4065
Rp4066
aI1
aa(lp4067
g2
((lp4068
VFreeCKI
p4069
atp4070
Rp4071
aI1
aa(lp4072
g2
((lp4073
VDecoyR
p4074
atp4075
Rp4076
aI1
aa(lp4077
g2
((lp4078
VmiRNA_1
p4079
aVmiRNA_2
p4080
atp4081
Rp4082
aI1
aa(lp4083
g2
((lp4084
Vphosphorylatedcdc25
p4085
atp4086
Rp4087
aI1
aa(lp4088
g2
((lp4089
Vubiquitinconjugatingenzyme
p4090
atp4091
Rp4092
aI1
aa(lp4093
g2
((lp4094
VSTIM
p4095
atp4096
Rp4097
aI1
aa(lp4098
g2
((lp4099
VSERCA
p4100
atp4101
Rp4102
aI1
aa(lp4103
g2
((lp4104
VPMCA
p4105
atp4106
Rp4107
aI1
aa(lp4108
g2
((lp4109
VCho
p4110
atp4111
Rp4112
aI1
aa(lp4113
g2
((lp4114
VPI3_4P2
p4115
atp4116
Rp4117
aI1
aa(lp4118
g2
((lp4119
VT1R_Surf
p4120
atp4121
Rp4122
aI1
aa(lp4123
g2
((lp4124
VNF_kB_IkB
p4125
atp4126
Rp4127
aI1
aa(lp4128
g2
((lp4129
VIGFR_active
p4130
atp4131
Rp4132
aI1
aa(lp4133
g2
((lp4134
VPI3KCA
p4135
atp4136
Rp4137
aI1
aa(lp4138
g2
((lp4139
Vslp1
p4140
aVslp1T
p4141
atp4142
Rp4143
aI1
aa(lp4144
g2
((lp4145
VL_Ornithine
p4146
atp4147
Rp4148
aI1
aa(lp4149
g2
((lp4150
VN1_Acetylspermidine
p4151
atp4152
Rp4153
aI1
aa(lp4154
g2
((lp4155
VPEPCK
p4156
atp4157
Rp4158
aI1
aa(lp4159
g2
((lp4160
VFoxo
p4161
atp4162
Rp4163
aI1
aa(lp4164
g2
((lp4165
VGP
p4166
atp4167
Rp4168
aI1
aa(lp4169
g2
((lp4170
VF16P
p4171
atp4172
Rp4173
aI1
aa(lp4174
g2
((lp4175
VSTYXn
p4176
atp4177
Rp4178
aI1
aa(lp4179
g2
((lp4180
VAPS
p4181
atp4182
Rp4183
aI1
aa(lp4184
g2
((lp4185
VS2
p4186
atp4187
Rp4188
aI1
aa(lp4189
g2
((lp4190
VACC
p4191
atp4192
Rp4193
aI1
aa(lp4194
g2
((lp4195
VPLSp
p4196
aVPLSm
p4197
atp4198
Rp4199
aI1
aa(lp4200
g2
((lp4201
VIAA
p4202
atp4203
Rp4204
aI1
aa(lp4205
g2
((lp4206
VRe
p4207
atp4208
Rp4209
aI1
aa(lp4210
g2
((lp4211
VRa
p4212
atp4213
Rp4214
aI1
aa(lp4215
g2
((lp4216
VCTR1
p4217
atp4218
Rp4219
aI1
aa(lp4220
g2
((lp4221
VCytokinin_ext
p4222
atp4223
Rp4224
aI1
aa(lp4225
g2
((lp4226
VAIF4_C
p4227
atp4228
Rp4229
aI1
aa(lp4230
g2
((lp4231
VGTPgS_C
p4232
atp4233
Rp4234
aI1
aa(lp4235
g2
((lp4236
VPI_M
p4237
atp4238
Rp4239
aI1
aa(lp4240
g2
((lp4241
VGDPbS_C
p4242
atp4243
Rp4244
aI1
aa(lp4245
g2
((lp4246
Vga3ox
p4247
aVGA3ox
p4248
atp4249
Rp4250
aI1
aa(lp4251
g2
((lp4252
VGA9
p4253
atp4254
Rp4255
aI1
aa(lp4256
g2
((lp4257
Vdella
p4258
aVDELLA
p4259
atp4260
Rp4261
aI1
aa(lp4262
g2
((lp4263
VGA4
p4264
atp4265
Rp4266
aI1
aa(lp4267
g2
((lp4268
VGA20ox
p4269
aVga20ox
p4270
atp4271
Rp4272
aI1
aa(lp4273
g2
((lp4274
VGA12
p4275
atp4276
Rp4277
aI1
aa(lp4278
g2
((lp4279
Vgid
p4280
aVGID
p4281
atp4282
Rp4283
aI1
aa(lp4284
g2
((lp4285
VGA15
p4286
atp4287
Rp4288
aI1
aa(lp4289
g2
((lp4290
VGA24
p4291
atp4292
Rp4293
aI1
aa(lp4294
g2
((lp4295
VSte12
p4296
atp4297
Rp4298
aI1
aa(lp4299
g2
((lp4300
VKss1
p4301
atp4302
Rp4303
aI1
aa(lp4304
g2
((lp4305
VFus3
p4306
atp4307
Rp4308
aI1
aa(lp4309
g2
((lp4310
VSte5
p4311
atp4312
Rp4313
aI1
aa(lp4314
g2
((lp4315
VPLCg
p4316
atp4317
Rp4318
aI1
aa(lp4319
g2
((lp4320
VAxin
p4321
atp4322
Rp4323
aI1
aa(lp4324
g2
((lp4325
VbCatenin_ast_APC_ast_Axin_ast_GSK3beta
p4326
aVAPC_ast_Axin_ast_GSK3beta
p4327
atp4328
Rp4329
aI1
aa(lp4330
g2
((lp4331
VDshi
p4332
atp4333
Rp4334
aI1
aa(lp4335
g2
((lp4336
VTCF
p4337
atp4338
Rp4339
aI1
aa(lp4340
g2
((lp4341
VArabinogalactan__AG__
p4342
aVStarchGlucosylunit
p4343
aVGlucosylArabinogalactan__GlcAG__
p4344
atp4345
Rp4346
aI1
aa(lp4347
g2
((lp4348
VMaltose
p4349
atp4350
Rp4351
aI1
aa(lp4352
g2
((lp4353
VMaltopentaose
p4354
atp4355
Rp4356
aI1
aa(lp4357
g2
((lp4358
VPolo
p4359
aVPoloT
p4360
atp4361
Rp4362
aI1
aa(lp4363
g2
((lp4364
VTem1
p4365
atp4366
Rp4367
aI1
aa(lp4368
g2
((lp4369
VPCNA
p4370
aVPCNAon
p4371
aVRad18_Rad18_PCNAonU
p4372
aVPCNAoff
p4373
aVPCNAonU
p4374
atp4375
Rp4376
aI1
aa(lp4377
g2
((lp4378
VRad18
p4379
atp4380
Rp4381
aI1
aa(lp4382
g2
((lp4383
VRad6
p4384
atp4385
Rp4386
aI1
aa(lp4387
g2
((lp4388
VRad5
p4389
atp4390
Rp4391
aI1
aa(lp4392
g2
((lp4393
VRad5_PCNAonU_U_U
p4394
atp4395
Rp4396
aI1
aa(lp4397
g2
((lp4398
VTSP1
p4399
atp4400
Rp4401
aI1
aa(lp4402
g2
((lp4403
VPLS
p4404
atp4405
Rp4406
aI1
aa(lp4407
g2
((lp4408
VPAI1
p4409
atp4410
Rp4411
aI1
aa(lp4412
g2
((lp4413
VA2M
p4414
atp4415
Rp4416
aI1
aa(lp4417
g2
((lp4418
VLTA4H
p4419
atp4420
Rp4421
aI1
aa(lp4422
g2
((lp4423
VTXB2
p4424
atp4425
Rp4426
aI1
aa(lp4427
g2
((lp4428
VTXAS
p4429
atp4430
Rp4431
aI1
aa(lp4432
g2
((lp4433
VAC
p4434
atp4435
Rp4436
aI1
aa(lp4437
g2
((lp4438
Vb1AR
p4439
atp4440
Rp4441
aI1
aa(lp4442
g2
((lp4443
VCIS
p4444
atp4445
Rp4446
aI1
aa(lp4447
g2
((lp4448
VSHP1
p4449
atp4450
Rp4451
aI1
aa(lp4452
g2
((lp4453
VCHOP
p4454
atp4455
Rp4456
aI1
aa(lp4457
g2
((lp4458
VATF4
p4459
atp4460
Rp4461
aI1
aa(lp4462
g2
((lp4463
VXbp1s
p4464
atp4465
Rp4466
aI1
aa(lp4467
g2
((lp4468
VWFS1
p4469
atp4470
Rp4471
aI1
aa(lp4472
g2
((lp4473
VGADD34
p4474
atp4475
Rp4476
aI1
aa(lp4477
g2
((lp4478
Vbeta_catenin
p4479
atp4480
Rp4481
aI1
aa(lp4482
g2
((lp4483
VactiveTFX
p4484
atp4485
Rp4486
aI1
aa(lp4487
g2
((lp4488
VFructose6_phosphate
p4489
atp4490
Rp4491
aI1
aa(lp4492
g2
((lp4493
V__ETZ__phosphofructokinase
p4494
atp4495
Rp4496
aI1
aa(lp4497
g2
((lp4498
V__MOB__acylenzymeintermediateofglyceraldehyde3_phoshphatedehydrogenase
p4499
aV__MOX__glyceraldehyde3_phoshphatedehydrogenase
p4500
atp4501
Rp4502
aI1
aa(lp4503
g2
((lp4504
V__ENZ__hexokinase
p4505
atp4506
Rp4507
aI1
aa(lp4508
g2
((lp4509
V__GPP__hexosediphosphate
p4510
atp4511
Rp4512
aI1
aa(lp4513
g2
((lp4514
V__AGP__alpha_glycerophosphate
p4515
atp4516
Rp4517
aI1
aa(lp4518
g2
((lp4519
VMixedflowcyanide
p4520
atp4521
Rp4522
aI1
aa(lp4523
g2
((lp4524
Vadenylosuccinate
p4525
atp4526
Rp4527
aI1
aa(lp4528
g2
((lp4529
VLF
p4530
atp4531
Rp4532
aI1
aa(lp4533
g2
((lp4534
VGlcNac
p4535
atp4536
Rp4537
aI1
aa(lp4538
g2
((lp4539
VC4BP
p4540
atp4541
Rp4542
aI1
aa(lp4543
g2
((lp4544
VC3a
p4545
atp4546
Rp4547
aI1
aa(lp4548
g2
((lp4549
VC3b
p4550
atp4551
Rp4552
aI1
aa(lp4553
g2
((lp4554
VC2b
p4555
atp4556
Rp4557
aI1
aa(lp4558
g2
((lp4559
VC2a
p4560
atp4561
Rp4562
aI1
aa(lp4563
g2
((lp4564
VC4a
p4565
atp4566
Rp4567
aI1
aa(lp4568
g2
((lp4569
VC4b
p4570
atp4571
Rp4572
aI1
aa(lp4573
g2
((lp4574
VC4
p4575
atp4576
Rp4577
aI1
aa(lp4578
g2
((lp4579
VSBF
p4580
atp4581
Rp4582
aI1
aa(lp4583
g2
((lp4584
VSwe1
p4585
atp4586
Rp4587
aI1
aa(lp4588
g2
((lp4589
VGaGTP
p4590
atp4591
Rp4592
aI1
aa(lp4593
g2
((lp4594
VCdc10
p4595
atp4596
Rp4597
aI1
aa(lp4598
g2
((lp4599
Vcig2pl
p4600
atp4601
Rp4602
aI1
aa(lp4603
g2
((lp4604
VClp1
p4605
atp4606
Rp4607
aI1
aa(lp4608
g2
((lp4609
VpreRC
p4610
atp4611
Rp4612
aI1
aa(lp4613
g2
((lp4614
Vmik1pl
p4615
atp4616
Rp4617
aI1
aa(lp4618
g2
((lp4619
Vdihydrofolatereductasefree
p4620
atp4621
Rp4622
aI1
aa(lp4623
g2
((lp4624
VAcr3
p4625
atp4626
Rp4627
aI1
aa(lp4628
g2
((lp4629
VvAsGS3
p4630
atp4631
Rp4632
aI1
aa(lp4633
g2
((lp4634
VFZYa
p4635
atp4636
Rp4637
aI1
aa(lp4638
g2
((lp4639
VLPG
p4640
atp4641
Rp4642
aI1
aa(lp4643
g2
((lp4644
Vluc
p4645
atp4646
Rp4647
aI1
aa(lp4648
g2
((lp4649
VCytochromeCinmitochondrium
p4650
atp4651
Rp4652
aI1
aa(lp4653
g2
((lp4654
VBAR
p4655
atp4656
Rp4657
aI1
aa(lp4658
g2
((lp4659
VA20_mRNA
p4660
atp4661
Rp4662
aI1
aa(lp4663
g2
((lp4664
VXIAP_mRNA
p4665
atp4666
Rp4667
aI1
aa(lp4668
g2
((lp4669
VIkBa_mRNA
p4670
atp4671
Rp4672
aI1
aa(lp4673
g2
((lp4674
VFLIP_mRNA
p4675
atp4676
Rp4677
aI1
aa(lp4678
g2
((lp4679
VPII
p4680
atp4681
Rp4682
aI1
aa(lp4683
g2
((lp4684
VGS
p4685
atp4686
Rp4687
aI1
aa(lp4688
g2
((lp4689
VGLN
p4690
atp4691
Rp4692
aI1
aa(lp4693
g2
((lp4694
VKG
p4695
atp4696
Rp4697
aI1
aa(lp4698
g2
((lp4699
Viend
p4700
atp4701
Rp4702
aI1
aa(lp4703
g2
((lp4704
VHes_1
p4705
atp4706
Rp4707
aI1
aa(lp4708
g2
((lp4709
VDishevelled
p4710
atp4711
Rp4712
aI1
aa(lp4713
g2
((lp4714
Vsmo
p4715
atp4716
Rp4717
aI1
aa(lp4718
g2
((lp4719
VRBP_jk
p4720
atp4721
Rp4722
aI1
aa(lp4723
g2
((lp4724
VDC
p4725
atp4726
Rp4727
aI1
aa(lp4728
g2
((lp4729
VNHDL
p4730
atp4731
Rp4732
aI1
aa(lp4733
g2
((lp4734
VERK1_minus_2
p4735
atp4736
Rp4737
aI1
aa(lp4738
g2
((lp4739
Vni
p4740
atp4741
Rp4742
aI1
aa(lp4743
g2
((lp4744
Vasp
p4745
atp4746
Rp4747
aI1
aa(lp4748
g2
((lp4749
VeNOS_Cav_1
p4750
atp4751
Rp4752
aI1
aa(lp4753
g2
((lp4754
VCB
p4755
atp4756
Rp4757
aI1
aa(lp4758
g2
((lp4759
VVIP
p4760
atp4761
Rp4762
aI1
aa(lp4763
g2
((lp4764
VL_r
p4765
aVL_b
p4766
atp4767
Rp4768
aI1
aa(lp4769
g2
((lp4770
VPFM_gut
p4771
atp4772
Rp4773
aI1
aa(lp4774
g2
((lp4775
VS_r
p4776
aVS_b
p4777
atp4778
Rp4779
aI1
aa(lp4780
g2
((lp4781
VA_r
p4782
aVA_b
p4783
atp4784
Rp4785
aI1
aa(lp4786
g2
((lp4787
VO_b
p4788
aVO_r
p4789
atp4790
Rp4791
aI1
aa(lp4792
g2
((lp4793
VFAAH_r
p4794
aVFAAH_m
p4795
aVFAAH_b
p4796
atp4797
Rp4798
aI1
aa(lp4799
g2
((lp4800
VP_r
p4801
aVP_b
p4802
atp4803
Rp4804
aI1
aa(lp4805
g2
((lp4806
VdHb
p4807
atp4808
Rp4809
aI1
aa(lp4810
g2
((lp4811
VMannitol
p4812
atp4813
Rp4814
aI1
aa(lp4815
g2
((lp4816
VButanediol
p4817
atp4818
Rp4819
aI1
aa(lp4820
g2
((lp4821
VAcetoin_Ext
p4822
atp4823
Rp4824
aI1
aa(lp4825
g2
((lp4826
VSap18
p4827
atp4828
Rp4829
aI1
aa(lp4830
g2
((lp4831
VMicrotubule
p4832
atp4833
Rp4834
aI1
aa(lp4835
g2
((lp4836
VHedgehogtargetgene
p4837
atp4838
Rp4839
aI1
aa(lp4840
g2
((lp4841
VCubitus_space_interruptus
p4842
atp4843
Rp4844
aI1
aa(lp4845
g2
((lp4846
VUDPGc
p4847
atp4848
Rp4849
aI1
aa(lp4850
g2
((lp4851
VHPRc
p4852
atp4853
Rp4854
aI1
aa(lp4855
g2
((lp4856
VGCA
p4857
atp4858
Rp4859
aI1
aa(lp4860
g2
((lp4861
VGCEA
p4862
atp4863
Rp4864
aI1
aa(lp4865
g2
((lp4866
VUb
p4867
atp4868
Rp4869
aI1
aa(lp4870
g2
((lp4871
VSerrate
p4872
atp4873
Rp4874
aI1
aa(lp4875
g2
((lp4876
VE__spl___Cgenes
p4877
atp4878
Rp4879
aI1
aa(lp4880
g2
((lp4881
Vs77
p4882
aVs76
p4883
atp4884
Rp4885
aI1
aa(lp4886
g2
((lp4887
VSu__H__
p4888
atp4889
Rp4890
aI1
aa(lp4891
g2
((lp4892
VNumb
p4893
atp4894
Rp4895
aI1
aa(lp4896
g2
((lp4897
VDelta
p4898
atp4899
Rp4900
aI1
aa(lp4901
g2
((lp4902
VNotch
p4903
atp4904
Rp4905
aI1
aa(lp4906
g2
((lp4907
VMastermind
p4908
atp4909
Rp4910
aI1
aa(lp4911
g2
((lp4912
Vfucose
p4913
atp4914
Rp4915
aI1
aa(lp4916
g2
((lp4917
VTfR2
p4918
atp4919
Rp4920
aI1
aa(lp4921
g2
((lp4922
VFT
p4923
atp4924
Rp4925
aI1
aa(lp4926
g2
((lp4927
VHamp
p4928
atp4929
Rp4930
aI1
aa(lp4931
g2
((lp4932
VIRP
p4933
atp4934
Rp4935
aI1
aa(lp4936
g2
((lp4937
VFpn
p4938
atp4939
Rp4940
aI1
aa(lp4941
g2
((lp4942
VHeme
p4943
atp4944
Rp4945
aI1
aa(lp4946
g2
((lp4947
VHO_1
p4948
atp4949
Rp4950
aI1
aa(lp4951
g2
((lp4952
VHFE
p4953
atp4954
Rp4955
aI1
aa(lp4956
g2
((lp4957
VTfR
p4958
atp4959
Rp4960
aI1
aa(lp4961
g2
((lp4962
VeNOS
p4963
atp4964
Rp4965
aI1
aa(lp4966
g2
((lp4967
VR4
p4968
aVR5
p4969
aVR6
p4970
aVR1
p4971
aVR2
p4972
aVR3
p4973
atp4974
Rp4975
aI1
aa(lp4976
g2
((lp4977
VcGMP
p4978
atp4979
Rp4980
aI1
aa(lp4981
g2
((lp4982
VArr
p4983
atp4984
Rp4985
aI1
aa(lp4986
g2
((lp4987
VRK
p4988
atp4989
Rp4990
aI1
aa(lp4991
g2
((lp4992
VRv
p4993
aVRc
p4994
atp4995
Rp4996
aI1
aa(lp4997
g2
((lp4998
VCp
p4999
aVVpCyt
p5000
atp5001
Rp5002
aI1
aa(lp5003
g2
((lp5004
VP_Pb2
p5005
atp5006
Rp5007
aI1
aa(lp5008
g2
((lp5009
VP_Ha
p5010
atp5011
Rp5012
aI1
aa(lp5013
g2
((lp5014
VP_Pb1
p5015
atp5016
Rp5017
aI1
aa(lp5018
g2
((lp5019
VP_Na
p5020
atp5021
Rp5022
aI1
aa(lp5023
g2
((lp5024
VVen
p5025
aVVex
p5026
aVVrel
p5027
atp5028
Rp5029
aI1
aa(lp5030
g2
((lp5031
VP_Rdrp
p5032
atp5033
Rp5034
aI1
aa(lp5035
g2
((lp5036
VP_Nep
p5037
atp5038
Rp5039
aI1
aa(lp5040
g2
((lp5041
VP_Pa
p5042
atp5043
Rp5044
aI1
aa(lp5045
g2
((lp5046
VP_M1
p5047
atp5048
Rp5049
aI1
aa(lp5050
g2
((lp5051
VP_M2
p5052
atp5053
Rp5054
aI1
aa(lp5055
g2
((lp5056
VVfus
p5057
atp5058
Rp5059
aI1
aa(lp5060
g2
((lp5061
VP_Np
p5062
atp5063
Rp5064
aI1
aa(lp5065
g2
((lp5066
VIRF3
p5067
atp5068
Rp5069
aI1
aa(lp5070
g2
((lp5071
VLBP
p5072
atp5073
Rp5074
aI1
aa(lp5075
g2
((lp5076
VTRAF6
p5077
atp5078
Rp5079
aI1
aa(lp5080
g2
((lp5081
VTIRAP
p5082
atp5083
Rp5084
aI1
aa(lp5085
g2
((lp5086
VTRAM
p5087
atp5088
Rp5089
aI1
aa(lp5090
g2
((lp5091
VCD14
p5092
atp5093
Rp5094
aI1
aa(lp5095
g2
((lp5096
VTRIF
p5097
atp5098
Rp5099
aI1
aa(lp5100
g2
((lp5101
VLPS
p5102
atp5103
Rp5104
aI1
aa(lp5105
g2
((lp5106
VRIP1
p5107
atp5108
Rp5109
aI1
aa(lp5110
g2
((lp5111
VMyD88
p5112
atp5113
Rp5114
aI1
aa(lp5115
g2
((lp5116
VTLR4
p5117
atp5118
Rp5119
aI1
aa(lp5120
g2
((lp5121
VIRAK4
p5122
atp5123
Rp5124
aI1
aa(lp5125
g2
((lp5126
VLTC4_aw_out
p5127
atp5128
Rp5129
aI1
aa(lp5130
g2
((lp5131
VML_intes
p5132
aVZF_intes
p5133
atp5134
Rp5135
aI1
aa(lp5136
g2
((lp5137
VSho1
p5138
atp5139
Rp5140
aI1
aa(lp5141
g2
((lp5142
VPbs2
p5143
atp5144
Rp5145
aI1
aa(lp5146
g2
((lp5147
VRENTP
p5148
atp5149
Rp5150
aI1
aa(lp5151
g2
((lp5152
VCDC14
p5153
atp5154
Rp5155
aI1
aa(lp5156
g2
((lp5157
VMASS
p5158
atp5159
Rp5160
aI1
aa(lp5161
g2
((lp5162
VSPN
p5163
atp5164
Rp5165
aI1
aa(lp5166
g2
((lp5167
VBUD
p5168
atp5169
Rp5170
aI1
aa(lp5171
g2
((lp5172
VCDC6
p5173
atp5174
Rp5175
aI1
aa(lp5176
g2
((lp5177
VSki_c
p5178
atp5179
Rp5180
aI1
aa(lp5181
g2
((lp5182
VSARA
p5183
atp5184
Rp5185
aI1
aa(lp5186
g2
((lp5187
VErbB2
p5188
atp5189
Rp5190
aI1
aa(lp5191
g2
((lp5192
VErbB3
p5193
atp5194
Rp5195
aI1
aa(lp5196
g2
((lp5197
VGab1
p5198
atp5199
Rp5200
aI1
aa(lp5201
g2
((lp5202
VAceK
p5203
atp5204
Rp5205
aI1
aa(lp5206
g2
((lp5207
VIcd
p5208
atp5209
Rp5210
aI1
aa(lp5211
g2
((lp5212
VGltA
p5213
atp5214
Rp5215
aI1
aa(lp5216
g2
((lp5217
VEIICB
p5218
aVEIIA_P
p5219
aVEIIA
p5220
atp5221
Rp5222
aI1
aa(lp5223
g2
((lp5224
VPdhR
p5225
atp5226
Rp5227
aI1
aa(lp5228
g2
((lp5229
VCya
p5230
atp5231
Rp5232
aI1
aa(lp5233
g2
((lp5234
VMe
p5235
atp5236
Rp5237
aI1
aa(lp5238
g2
((lp5239
VCrp
p5240
atp5241
Rp5242
aI1
aa(lp5243
g2
((lp5244
VAceB
p5245
atp5246
Rp5247
aI1
aa(lp5248
g2
((lp5249
VAceA
p5250
atp5251
Rp5252
aI1
aa(lp5253
g2
((lp5254
VFdp
p5255
atp5256
Rp5257
aI1
aa(lp5258
g2
((lp5259
VPykF
p5260
atp5261
Rp5262
aI1
aa(lp5263
g2
((lp5264
VCra
p5265
atp5266
Rp5267
aI1
aa(lp5268
g2
((lp5269
VPdh
p5270
atp5271
Rp5272
aI1
aa(lp5273
g2
((lp5274
VIclR
p5275
atp5276
Rp5277
aI1
aa(lp5278
g2
((lp5279
VEno
p5280
atp5281
Rp5282
aI1
aa(lp5283
g2
((lp5284
VPpsA
p5285
atp5286
Rp5287
aI1
aa(lp5288
g2
((lp5289
VPpc
p5290
atp5291
Rp5292
aI1
aa(lp5293
g2
((lp5294
VMdh
p5295
atp5296
Rp5297
aI1
aa(lp5298
g2
((lp5299
VFBP
p5300
atp5301
Rp5302
aI1
aa(lp5303
g2
((lp5304
VPckA
p5305
atp5306
Rp5307
aI1
aa(lp5308
g2
((lp5309
VPfkA
p5310
atp5311
Rp5312
aI1
aa(lp5313
g2
((lp5314
VPGF
p5315
atp5316
Rp5317
aI1
aa(lp5318
g2
((lp5319
VP4
p5320
atp5321
Rp5322
aI1
aa(lp5323
g2
((lp5324
VCL
p5325
atp5326
Rp5327
aI1
aa(lp5328
g2
((lp5329
VGnRH_Pit
p5330
atp5331
Rp5332
aI1
aa(lp5333
g2
((lp5334
VIOF
p5335
atp5336
Rp5337
aI1
aa(lp5338
g2
((lp5339
VFoll
p5340
atp5341
Rp5342
aI1
aa(lp5343
g2
((lp5344
VOT
p5345
atp5346
Rp5347
aI1
aa(lp5348
g2
((lp5349
VE2
p5350
atp5351
Rp5352
aI1
aa(lp5353
g2
((lp5354
Velectrontransferflavoprotein__oxidisedform__
p5355
atp5356
Rp5357
aI1
aa(lp5358
g2
((lp5359
VFAD
p5360
atp5361
Rp5362
aI1
aa(lp5363
g2
((lp5364
Velectrontransferflavoprotein__reducedform__
p5365
atp5366
Rp5367
aI1
aa(lp5368
g2
((lp5369
Vmalate
p5370
atp5371
Rp5372
aI1
aa(lp5373
g2
((lp5374
Vnuc__C4D1__b__
p5375
aVcyto__C4D1__b__
p5376
atp5377
Rp5378
aI1
aa(lp5379
g2
((lp5380
Vnuc__dnapre____
p5381
atp5382
Rp5383
aI1
aa(lp5384
g2
((lp5385
VRhoGAP
p5386
atp5387
Rp5388
aI1
aa(lp5389
g2
((lp5390
Vpro_thrombinR
p5391
aVthrombinRactive
p5392
aVthrombinR
p5393
atp5394
Rp5395
aI1
aa(lp5396
g2
((lp5397
VIP3R
p5398
atp5399
Rp5400
aI1
aa(lp5401
g2
((lp5402
VMLC
p5403
atp5404
Rp5405
aI1
aa(lp5406
g2
((lp5407
Vp115RhoGEF
p5408
atp5409
Rp5410
aI1
aa(lp5411
g2
((lp5412
VPhosphotase1
p5413
aVPhosphotase3
p5414
aVPhosphatase2
p5415
atp5416
Rp5417
aI1
aa(lp5418
g2
((lp5419
VProt
p5420
atp5421
Rp5422
aI1
aa(lp5423
g2
((lp5424
VBag2
p5425
atp5426
Rp5427
aI1
aa(lp5428
g2
((lp5429
VCHIP
p5430
atp5431
Rp5432
aI1
aa(lp5433
g2
((lp5434
VTauH4R_Hsp90
p5435
aVTauH3R_Hsp90
p5436
aVTauH4R
p5437
aVTauH3R
p5438
atp5439
Rp5440
aI1
aa(lp5441
g2
((lp5442
VMT
p5443
atp5444
Rp5445
aI1
aa(lp5446
g2
((lp5447
VSmac
p5448
aVSmac_m
p5449
atp5450
Rp5451
aI1
aa(lp5452
g2
((lp5453
VCytoC_m
p5454
aVCytoC
p5455
atp5456
Rp5457
aI1
aa(lp5458
g2
((lp5459
Vcasp8
p5460
atp5461
Rp5462
aI1
aa(lp5463
g2
((lp5464
VBax
p5465
atp5466
Rp5467
aI1
aa(lp5468
g2
((lp5469
VcytosolicBcl_2
p5470
atp5471
Rp5472
aI1
aa(lp5473
g2
((lp5474
VFOXP3
p5475
atp5476
Rp5477
aI1
aa(lp5478
g2
((lp5479
VTbet
p5480
atp5481
Rp5482
aI1
aa(lp5483
g2
((lp5484
VIL21
p5485
aVIL21_pool
p5486
atp5487
Rp5488
aI1
aa(lp5489
g2
((lp5490
VIL23R
p5491
atp5492
Rp5493
aI1
aa(lp5494
g2
((lp5495
VIL12
p5496
aVp40
p5497
atp5498
Rp5499
aI1
aa(lp5500
g2
((lp5501
VSTAT6
p5502
atp5503
Rp5504
aI1
aa(lp5505
g2
((lp5506
VSTAT4
p5507
atp5508
Rp5509
aI1
aa(lp5510
g2
((lp5511
VIL18
p5512
aVIL18_pool
p5513
atp5514
Rp5515
aI1
aa(lp5516
g2
((lp5517
VIL10
p5518
aVIL10_pool
p5519
atp5520
Rp5521
aI1
aa(lp5522
g2
((lp5523
VIL4R
p5524
atp5525
Rp5526
aI1
aa(lp5527
g2
((lp5528
Vp19
p5529
aVIL23_pool
p5530
atp5531
Rp5532
aI1
aa(lp5533
g2
((lp5534
VIL2
p5535
aVIL2_pool
p5536
atp5537
Rp5538
aI1
aa(lp5539
g2
((lp5540
VRORgt
p5541
atp5542
Rp5543
aI1
aa(lp5544
g2
((lp5545
VIL17R
p5546
atp5547
Rp5548
aI1
aa(lp5549
g2
((lp5550
VGATA3
p5551
atp5552
Rp5553
aI1
aa(lp5554
g2
((lp5555
VIL4
p5556
aVIL4_pool
p5557
atp5558
Rp5559
aI1
aa(lp5560
g2
((lp5561
VIL21R
p5562
atp5563
Rp5564
aI1
aa(lp5565
g2
((lp5566
VIL17
p5567
atp5568
Rp5569
aI1
aa(lp5570
g2
((lp5571
VPPARg
p5572
atp5573
Rp5574
aI1
aa(lp5575
g2
((lp5576
VIL2R
p5577
atp5578
Rp5579
aI1
aa(lp5580
g2
((lp5581
VIL18R
p5582
atp5583
Rp5584
aI1
aa(lp5585
g2
((lp5586
VLB
p5587
atp5588
Rp5589
aI1
aa(lp5590
g2
((lp5591
VHP
p5592
atp5593
Rp5594
aI1
aa(lp5595
g2
((lp5596
VemT
p5597
aVnT
p5598
atp5599
Rp5600
aI1
aa(lp5601
g2
((lp5602
VM0
p5603
atp5604
Rp5605
aI1
aa(lp5606
g2
((lp5607
VBacterialpathogen
p5608
aVFungalpathogen
p5609
atp5610
Rp5611
aI1
aa(lp5612
g2
((lp5613
VEthylene
p5614
atp5615
Rp5616
aI1
aa(lp5617
g2
((lp5618
VHeavyMetal
p5619
atp5620
Rp5621
aI1
aa(lp5622
g2
((lp5623
VDrought
p5624
atp5625
Rp5626
aI1
aa(lp5627
g2
((lp5628
VSalt
p5629
atp5630
Rp5631
aI1
aa(lp5632
g2
((lp5633
VCold
p5634
atp5635
Rp5636
aI1
aa(lp5637
g2
((lp5638
VcSnRK2
p5639
atp5640
Rp5641
aI1
aa(lp5642
g2
((lp5643
VcP
p5644
atp5645
Rp5646
aI1
aa(lp5647
g2
((lp5648
VcPP2C
p5649
atp5650
Rp5651
aI1
aa(lp5652
g2
((lp5653
VAcetylspermidine
p5654
atp5655
Rp5656
aI1
aa(lp5657
g2
((lp5658
VFTAy
p5659
aVFTAx
p5660
aVFTAz
p5661
atp5662
Rp5663
aI1
aa(lp5664
g2
((lp5665
VmRNAIKB_alpha
p5666
atp5667
Rp5668
aI1
aa(lp5669
g2
((lp5670
VUCH_L1
p5671
atp5672
Rp5673
aI1
aa(lp5674
g2
((lp5675
VNeuromelanin
p5676
atp5677
Rp5678
aI1
aa(lp5679
g2
((lp5680
VSynphilin_1
p5681
atp5682
Rp5683
aI1
aa(lp5684
g2
((lp5685
VParkin
p5686
atp5687
Rp5688
aI1
aa(lp5689
g2
((lp5690
VVesicle
p5691
atp5692
Rp5693
aI1
aa(lp5694
g2
((lp5695
VOH_
p5696
atp5697
Rp5698
aI1
aa(lp5699
g2
((lp5700
VE1
p5701
atp5702
Rp5703
aI1
aa(lp5704
g2
((lp5705
VUbcH8
p5706
atp5707
Rp5708
aI1
aa(lp5709
g2
((lp5710
VNeurotoxins
p5711
atp5712
Rp5713
aI1
aa(lp5714
g2
((lp5715
VNH3
p5716
atp5717
Rp5718
aI1
aa(lp5719
g2
((lp5720
VBioamines
p5721
atp5722
Rp5723
aI1
aa(lp5724
g2
((lp5725
VDopamine
p5726
aVDA_quinone
p5727
atp5728
Rp5729
aI1
aa(lp5730
g2
((lp5731
VPreautophagosome_membrane
p5732
atp5733
Rp5734
aI1
aa(lp5735
g2
((lp5736
VUbiquitin
p5737
atp5738
Rp5739
aI1
aa(lp5740
g2
((lp5741
V_beta_TrCP
p5742
atp5743
Rp5744
aI1
aa(lp5745
g2
((lp5746
VDiversin
p5747
atp5748
Rp5749
aI1
aa(lp5750
g2
((lp5751
VLRP5_6
p5752
atp5753
Rp5754
aI1
aa(lp5755
g2
((lp5756
VFRAT
p5757
atp5758
Rp5759
aI1
aa(lp5760
g2
((lp5761
VBcl9
p5762
atp5763
Rp5764
aI1
aa(lp5765
g2
((lp5766
VSWI_SNF
p5767
atp5768
Rp5769
aI1
aa(lp5770
g2
((lp5771
VPygo
p5772
atp5773
Rp5774
aI1
aa(lp5775
g2
((lp5776
VR_FSH
p5777
atp5778
Rp5779
aI1
aa(lp5780
g2
((lp5781
VR_LH
p5782
atp5783
Rp5784
aI1
aa(lp5785
g2
((lp5786
VAnt_d
p5787
atp5788
Rp5789
aI1
aa(lp5790
g2
((lp5791
VAgo_d
p5792
atp5793
Rp5794
aI1
aa(lp5795
g2
((lp5796
VRhoGEF
p5797
atp5798
Rp5799
aI1
aa(lp5800
g2
((lp5801
VCbl_CIN85
p5802
atp5803
Rp5804
aI1
aa(lp5805
g2
((lp5806
VRacGEF
p5807
atp5808
Rp5809
aI1
aa(lp5810
g2
((lp5811
VRhoGDI
p5812
atp5813
Rp5814
aI1
aa(lp5815
g2
((lp5816
VCaMKII
p5817
atp5818
Rp5819
aI1
aa(lp5820
g2
((lp5821
VSOURCE
p5822
atp5823
Rp5824
aI1
aa(lp5825
g2
((lp5826
VLamp2a
p5827
atp5828
Rp5829
aI1
aa(lp5830
g2
((lp5831
VeIF1A
p5832
atp5833
Rp5834
aI1
aa(lp5835
g2
((lp5836
VeRF1
p5837
atp5838
Rp5839
aI1
aa(lp5840
g2
((lp5841
VPab1
p5842
atp5843
Rp5844
aI1
aa(lp5845
g2
((lp5846
VDed1
p5847
atp5848
Rp5849
aI1
aa(lp5850
g2
((lp5851
VeIF1
p5852
atp5853
Rp5854
aI1
aa(lp5855
g2
((lp5856
VeIF3
p5857
atp5858
Rp5859
aI1
aa(lp5860
g2
((lp5861
VeIF5
p5862
atp5863
Rp5864
aI1
aa(lp5865
g2
((lp5866
Vaa_tRNA
p5867
atp5868
Rp5869
aI1
aa(lp5870
g2
((lp5871
VtRNA
p5872
atp5873
Rp5874
aI1
aa(lp5875
g2
((lp5876
VeIF4E
p5877
atp5878
Rp5879
aI1
aa(lp5880
g2
((lp5881
VeIF2B
p5882
atp5883
Rp5884
aI1
aa(lp5885
g2
((lp5886
VeIF4A
p5887
atp5888
Rp5889
aI1
aa(lp5890
g2
((lp5891
VeIF4B
p5892
atp5893
Rp5894
aI1
aa(lp5895
g2
((lp5896
VPTP1B
p5897
atp5898
Rp5899
aI1
aa(lp5900
g2
((lp5901
VIns
p5902
atp5903
Rp5904
aI1
aa(lp5905
g2
((lp5906
VNOX
p5907
atp5908
Rp5909
aI1
aa(lp5910
g2
((lp5911
VGENE_E_Apobec
p5912
aVGENE_P_Apobec
p5913
aVGENE_M_Apobec
p5914
atp5915
Rp5916
aI1
aa(lp5917
g2
((lp5918
VGENE_M_Otx
p5919
aVPRE_E_Otx
p5920
aVGENE_P_Otx
p5921
aVPRE_E_UVAOtx
p5922
aVPRE_P_Otx
p5923
aVGENE_E_Otx
p5924
aVPRE_M_Otx
p5925
atp5926
Rp5927
aI1
aa(lp5928
g2
((lp5929
VGENE_P_Hex
p5930
aVGENE_M_Hex
p5931
aVGENE_E_Hex
p5932
atp5933
Rp5934
aI1
aa(lp5935
g2
((lp5936
VGENE_M_Endo16
p5937
aVGENE_E_Endo16
p5938
aVGENE_P_Endo16
p5939
atp5940
Rp5941
aI1
aa(lp5942
g2
((lp5943
VGENE_E_CyP
p5944
aVGENE_M_CyP
p5945
aVGENE_P_CyP
p5946
atp5947
Rp5948
aI1
aa(lp5949
g2
((lp5950
VPROTEIN_P_SuH
p5951
aVPRE_E_SuH
p5952
aVPRE_M_SuH
p5953
atp5954
Rp5955
aI1
aa(lp5956
g2
((lp5957
VGENE_E_TBr
p5958
aVGENE_P_TBr
p5959
aVGENE_M_TBr
p5960
atp5961
Rp5962
aI1
aa(lp5963
g2
((lp5964
VGENE_M_Snail
p5965
aVGENE_P_Snail
p5966
aVGENE_E_Snail
p5967
atp5968
Rp5969
aI1
aa(lp5970
g2
((lp5971
VGENE_M_SoxC
p5972
aVGENE_P_SoxC
p5973
aVGENE_E_SoxC
p5974
atp5975
Rp5976
aI1
aa(lp5977
g2
((lp5978
VGENE_M_Erg
p5979
aVGENE_P_Erg
p5980
aVGENE_E_Erg
p5981
atp5982
Rp5983
aI1
aa(lp5984
g2
((lp5985
VPRE_M_UbiqSoxB1
p5986
aVPRE_P_UbiqAlx1
p5987
aVPRE_P_UbiqHnf6
p5988
aVPRE_E_UbiqSoxB1
p5989
aVPRE_P_UbiqEts1
p5990
aVPRE_P_UbiqSoxC
p5991
aVPRE_P_UbiqES
p5992
aVPRE_P_UbiqHesC
p5993
aVPRE_P_UbiqTel
p5994
atp5995
Rp5996
aI1
aa(lp5997
g2
((lp5998
VGENE_P_Blimp1
p5999
aVGENE_M_Blimp1
p6000
aVGENE_E_Blimp1
p6001
atp6002
Rp6003
aI1
aa(lp6004
g2
((lp6005
VGENE_M_CAPK
p6006
aVmRNA_P_CAPK
p6007
aVmRNA_E_CAPK
p6008
atp6009
Rp6010
aI1
aa(lp6011
g2
((lp6012
VGENE_M_Kakapo
p6013
aVGENE_E_Kakapo
p6014
aVGENE_P_Kakapo
p6015
atp6016
Rp6017
aI1
aa(lp6018
g2
((lp6019
VGENE_E_SuTx
p6020
aVGENE_P_SuTx
p6021
aVGENE_M_SuTx
p6022
atp6023
Rp6024
aI1
aa(lp6025
g2
((lp6026
VGENE_E_ES
p6027
atp6028
Rp6029
aI1
aa(lp6030
g2
((lp6031
VPROTEIN_M_VEGFSignal
p6032
aVPROTEIN_E_VEGFSignal
p6033
aVPRE_E_VEGF
p6034
aVPROTEIN_P_VEGFSignal
p6035
atp6036
Rp6037
aI1
aa(lp6038
g2
((lp6039
VGENE_E_Pmar1
p6040
aVGENE_M_Pmar1
p6041
aVGENE_P_Pmar1
p6042
atp6043
Rp6044
aI1
aa(lp6045
g2
((lp6046
VGENE_E_VEGFR
p6047
aVGENE_M_VEGFR
p6048
aVGENE_P_VEGFR
p6049
atp6050
Rp6051
aI1
aa(lp6052
g2
((lp6053
VGENE_P_HesC
p6054
aVGENE_E_HesC
p6055
aVGENE_M_HesC
p6056
atp6057
Rp6058
aI1
aa(lp6059
g2
((lp6060
VGENE_E_Hox
p6061
aVGENE_P_Hox
p6062
aVGENE_M_Hox
p6063
atp6064
Rp6065
aI1
aa(lp6066
g2
((lp6067
VGENE_P_Tel
p6068
aVGENE_M_Tel
p6069
aVGENE_E_Tel
p6070
atp6071
Rp6072
aI1
aa(lp6073
g2
((lp6074
VGENE_M_Tgif
p6075
aVGENE_P_Tgif
p6076
aVGENE_E_Tgif
p6077
atp6078
Rp6079
aI1
aa(lp6080
g2
((lp6081
VPRE_M_SoxB1
p6082
aVGENE_E_SoxB1
p6083
aVPRE_E_SoxB1
p6084
aVGENE_P_SoxB1
p6085
aVGENE_M_SoxB1
p6086
atp6087
Rp6088
aI1
aa(lp6089
g2
((lp6090
VGENE_P_Msp130
p6091
aVGENE_E_Msp130
p6092
aVGENE_M_Msp130
p6093
atp6094
Rp6095
aI1
aa(lp6096
g2
((lp6097
VGENE_E_z13
p6098
aVGENE_P_z13
p6099
aVGENE_M_z13
p6100
atp6101
Rp6102
aI1
aa(lp6103
g2
((lp6104
VGENE_P_OrCt
p6105
aVGENE_M_OrCt
p6106
aVGENE_E_OrCt
p6107
atp6108
Rp6109
aI1
aa(lp6110
g2
((lp6111
VPROTEIN_E_Alx1
p6112
aVGENE_M_Alx1
p6113
aVGENE_P_Alx1
p6114
aVGENE_E_Alx1
p6115
atp6116
Rp6117
aI1
aa(lp6118
g2
((lp6119
VPRE_P_Ets1
p6120
aVGENE_M_Ets1
p6121
aVGENE_P_Ets1
p6122
aVGENE_E_Ets1
p6123
atp6124
Rp6125
aI1
aa(lp6126
g2
((lp6127
VGENE_P_FvMo
p6128
aVGENE_M_FvMo
p6129
aVGENE_E_FvMo
p6130
atp6131
Rp6132
aI1
aa(lp6133
g2
((lp6134
VGENE_E_Lim
p6135
aVGENE_M_Lim
p6136
aVGENE_P_Lim
p6137
atp6138
Rp6139
aI1
aa(lp6140
g2
((lp6141
VGENE_E_Ficolin
p6142
aVGENE_M_Ficolin
p6143
aVGENE_P_Ficolin
p6144
atp6145
Rp6146
aI1
aa(lp6147
g2
((lp6148
VGENE_P_Wnt8
p6149
aVGENE_E_Wnt8
p6150
aVGENE_M_Wnt8
p6151
atp6152
Rp6153
aI1
aa(lp6154
g2
((lp6155
VGENE_E_Gcm
p6156
aVGENE_M_Gcm
p6157
aVGENE_P_Gcm
p6158
atp6159
Rp6160
aI1
aa(lp6161
g2
((lp6162
VGENE_P_Hnf6
p6163
aVGENE_M_Hnf6
p6164
aVGENE_E_Hnf6
p6165
atp6166
Rp6167
aI1
aa(lp6168
g2
((lp6169
VGENE_E_Gcad
p6170
aVPRE_P_Gcad
p6171
aVPRE_E_Gcad
p6172
aVGENE_P_Gcad
p6173
aVGENE_M_Gcad
p6174
aVPRE_M_Gcad
p6175
atp6176
Rp6177
aI1
aa(lp6178
g2
((lp6179
VGENE_P_Pks
p6180
aVGENE_E_Pks
p6181
aVGENE_M_Pks
p6182
atp6183
Rp6184
aI1
aa(lp6185
g2
((lp6186
VGENE_E_Brn
p6187
aVGENE_P_Brn
p6188
aVGENE_M_Brn
p6189
atp6190
Rp6191
aI1
aa(lp6192
g2
((lp6193
VPRE_M_Notch
p6194
aVPROTEIN_P_Notch
p6195
aVPRE_E_Notch
p6196
atp6197
Rp6198
aI1
aa(lp6199
g2
((lp6200
VGENE_E_Sm30
p6201
aVGENE_M_Sm30
p6202
aVGENE_P_Sm30
p6203
atp6204
Rp6205
aI1
aa(lp6206
g2
((lp6207
VGENE_E_Delta
p6208
aVGENE_P_Delta
p6209
aVPRE_M_UMADelta
p6210
aVGENE_M_Delta
p6211
atp6212
Rp6213
aI1
aa(lp6214
g2
((lp6215
VGENE_P_Bra
p6216
aVGENE_E_Bra
p6217
aVGENE_M_Bra
p6218
atp6219
Rp6220
aI1
aa(lp6221
g2
((lp6222
VGENE_M_Dri
p6223
aVGENE_P_Dri
p6224
aVGENE_E_Dri
p6225
atp6226
Rp6227
aI1
aa(lp6228
g2
((lp6229
VPRE_M_UMR
p6230
aVPRE_E_UMR
p6231
atp6232
Rp6233
aI1
aa(lp6234
g2
((lp6235
VGENE_M_Nrl
p6236
aVPRE_M_UMANrl
p6237
aVGENE_E_Nrl
p6238
aVGENE_P_Nrl
p6239
atp6240
Rp6241
aI1
aa(lp6242
g2
((lp6243
VGENE_E_Dpt
p6244
aVGENE_M_Dpt
p6245
aVGENE_P_Dpt
p6246
atp6247
Rp6248
aI1
aa(lp6249
g2
((lp6250
VGENE_M_FoxA
p6251
aVGENE_P_FoxA
p6252
aVGENE_E_FoxA
p6253
atp6254
Rp6255
aI1
aa(lp6256
g2
((lp6257
VGENE_E_FoxB
p6258
aVGENE_M_FoxB
p6259
aVGENE_P_FoxB
p6260
atp6261
Rp6262
aI1
aa(lp6263
g2
((lp6264
VGENE_P_Sm50
p6265
aVGENE_M_Sm50
p6266
aVGENE_E_Sm50
p6267
atp6268
Rp6269
aI1
aa(lp6270
g2
((lp6271
VGENE_E_FoxN23
p6272
aVGENE_P_FoxN23
p6273
aVGENE_M_FoxN23
p6274
atp6275
Rp6276
aI1
aa(lp6277
g2
((lp6278
VGENE_P_FoxO
p6279
aVGENE_E_FoxO
p6280
aVGENE_M_FoxO
p6281
atp6282
Rp6283
aI1
aa(lp6284
g2
((lp6285
VGENE_E_Gelsolin
p6286
aVGENE_M_Gelsolin
p6287
aVGENE_P_Gelsolin
p6288
atp6289
Rp6290
aI1
aa(lp6291
g2
((lp6292
VGENE_P_GataC
p6293
aVGENE_E_GataC
p6294
aVGENE_M_GataC
p6295
atp6296
Rp6297
aI1
aa(lp6298
g2
((lp6299
VGENE_E_GataE
p6300
aVGENE_M_GataE
p6301
aVGENE_P_GataE
p6302
atp6303
Rp6304
aI1
aa(lp6305
g2
((lp6306
VGENE_E_Eve
p6307
aVGENE_M_Eve
p6308
aVGENE_P_Eve
p6309
atp6310
Rp6311
aI1
aa(lp6312
g2
((lp6313
VGENE_M_Sm27
p6314
aVGENE_E_Sm27
p6315
aVGENE_P_Sm27
p6316
atp6317
Rp6318
aI1
aa(lp6319
g2
((lp6320
Vinositol_P_ceramideA__C26__
p6321
atp6322
Rp6323
aI1
aa(lp6324
g2
((lp6325
Vmethylglyoxal
p6326
atp6327
Rp6328
aI1
aa(lp6329
g2
((lp6330
Vceramide_1__C26__
p6331
atp6332
Rp6333
aI1
aa(lp6334
g2
((lp6335
V__S___lactaldehyde
p6336
atp6337
Rp6338
aI1
aa(lp6339
g2
((lp6340
Vhexacosanoyl_CoA
p6341
atp6342
Rp6343
aI1
aa(lp6344
g2
((lp6345
Vcerotate
p6346
atp6347
Rp6348
aI1
aa.